---
triple:          'arm64-apple-darwin'
binary-path:     a.out
relocations:
  - { offsetInCU: 0x4C, offset: 0x4C, size: 0x8, addend: 0x0, symName: __ZN8SLandlot5indexE, symObjAddr: 0x60D14, symBinAddr: 0x100020000, symSize: 0x0 }
  - { offsetInCU: 0x463B, offset: 0x463B, size: 0x8, addend: 0x0, symName: __ZNSt3__17advanceB7v160006INS_11__wrap_iterIPKP8SLandlotEEllvEEvRT_T0_, symObjAddr: 0xED0C, symBinAddr: 0x100011E28, symSize: 0x50 }
  - { offsetInCU: 0x612C, offset: 0x612C, size: 0x8, addend: 0x0, symName: __ZNSt3__17advanceB7v160006INS_11__wrap_iterIPP8SLandlotEEllvEEvRT_T0_, symObjAddr: 0xF958, symBinAddr: 0x100012A74, symSize: 0x50 }
  - { offsetInCU: 0x61BD, offset: 0x61BD, size: 0x8, addend: 0x0, symName: __ZNSt3__17advanceB7v160006INS_11__wrap_iterIP5OwnerEEllvEEvRT_T0_, symObjAddr: 0xFD84, symBinAddr: 0x100012EA0, symSize: 0x50 }
  - { offsetInCU: 0x624E, offset: 0x624E, size: 0x8, addend: 0x0, symName: __ZNSt3__17advanceB7v160006IPP8SLandlotmmvEEvRT_T0_, symObjAddr: 0x10FD8, symBinAddr: 0x1000140F4, symSize: 0x50 }
  - { offsetInCU: 0x6C2E, offset: 0x6C2E, size: 0x8, addend: 0x0, symName: __ZNSt3__17advanceB7v160006INS_11__wrap_iterIPK5OwnerEEllvEEvRT_T0_, symObjAddr: 0x15494, symBinAddr: 0x1000185B0, symSize: 0x50 }
  - { offsetInCU: 0x799A, offset: 0x799A, size: 0x8, addend: 0x0, symName: __ZNSt3__19transformB7v160006INS_11__wrap_iterIPcEES3_PFiiEEET0_T_S7_S6_T1_, symObjAddr: 0x4F4, symBinAddr: 0x100003610, symSize: 0x98 }
  - { offsetInCU: 0x7A0B, offset: 0x7A0B, size: 0x8, addend: 0x0, symName: __ZNSt3__1eqB7v160006INS_9allocatorIcEEEEbRKNS_12basic_stringIcNS_11char_traitsIcEET_EES9_, symObjAddr: 0xB90, symBinAddr: 0x100003CAC, symSize: 0x148 }
  - { offsetInCU: 0x7A7E, offset: 0x7A7E, size: 0x8, addend: 0x0, symName: __ZNSt3__1ltB7v160006IcNS_11char_traitsIcEENS_9allocatorIcEEEEbRKNS_12basic_stringIT_T0_T1_EESB_, symObjAddr: 0xCD8, symBinAddr: 0x100003DF4, symSize: 0x38 }
  - { offsetInCU: 0x7AD6, offset: 0x7AD6, size: 0x8, addend: 0x0, symName: __ZNSt3__111lower_boundB7v160006INS_11__wrap_iterIPKP8SLandlotEES3_PFbPKS2_S8_EEET_SB_SB_RKT0_T1_, symObjAddr: 0xF90, symBinAddr: 0x1000040AC, symSize: 0x60 }
  - { offsetInCU: 0x7B55, offset: 0x7B55, size: 0x8, addend: 0x0, symName: __ZNSt3__1neB7v160006IPKP8SLandlotEEbRKNS_11__wrap_iterIT_EES9_, symObjAddr: 0x107C, symBinAddr: 0x100004198, symSize: 0x34 }
  - { offsetInCU: 0x7B98, offset: 0x7B98, size: 0x8, addend: 0x0, symName: __ZNSt3__1neB7v160006IPK5OwnerEEbRKNS_11__wrap_iterIT_EES8_, symObjAddr: 0x1338, symBinAddr: 0x100004454, symSize: 0x34 }
  - { offsetInCU: 0x7BDB, offset: 0x7BDB, size: 0x8, addend: 0x0, symName: __ZNSt3__1neB7v160006IPP8SLandlotEEbRKNS_11__wrap_iterIT_EES8_, symObjAddr: 0x1688, symBinAddr: 0x1000047A4, symSize: 0x34 }
  - { offsetInCU: 0x7C1E, offset: 0x7C1E, size: 0x8, addend: 0x0, symName: __ZNSt3__111lower_boundB7v160006INS_11__wrap_iterIPP8SLandlotEES3_PFbPKS2_S7_EEET_SA_SA_RKT0_T1_, symObjAddr: 0x1BB8, symBinAddr: 0x100004CD4, symSize: 0x60 }
  - { offsetInCU: 0x7C9D, offset: 0x7C9D, size: 0x8, addend: 0x0, symName: __ZNSt3__111lower_boundB7v160006INS_11__wrap_iterIP5OwnerEES2_PFbRKS2_S6_EEET_S9_S9_RKT0_T1_, symObjAddr: 0x1C18, symBinAddr: 0x100004D34, symSize: 0x60 }
  - { offsetInCU: 0x7D38, offset: 0x7D38, size: 0x8, addend: 0x0, symName: __ZNSt3__111lower_boundB7v160006INS_11__wrap_iterIPK5OwnerEES2_PFbRS3_S6_EEET_S9_S9_RKT0_T1_, symObjAddr: 0x3918, symBinAddr: 0x100006A34, symSize: 0x60 }
  - { offsetInCU: 0x7DB7, offset: 0x7DB7, size: 0x8, addend: 0x0, symName: __ZNSt3__1eqB7v160006IcNS_11char_traitsIcEENS_9allocatorIcEEEEbRKNS_12basic_stringIT_T0_T1_EEPKS6_, symObjAddr: 0xC370, symBinAddr: 0x10000F48C, symSize: 0xC0 }
  - { offsetInCU: 0x7E1E, offset: 0x7E1E, size: 0x8, addend: 0x0, symName: __ZNSt3__118__constexpr_strlenB7v160006EPKc, symObjAddr: 0xC4F8, symBinAddr: 0x10000F614, symSize: 0x24 }
  - { offsetInCU: 0x7E4A, offset: 0x7E4A, size: 0x8, addend: 0x0, symName: __ZNSt3__130__libcpp_is_constant_evaluatedB7v160006Ev, symObjAddr: 0xC5EC, symBinAddr: 0x10000F708, symSize: 0xC }
  - { offsetInCU: 0x7E67, offset: 0x7E67, size: 0x8, addend: 0x0, symName: __ZNSt3__119__debug_db_insert_cB7v160006INS_12basic_stringIcNS_11char_traitsIcEENS_9allocatorIcEEEEEEvPT_, symObjAddr: 0xC6F8, symBinAddr: 0x10000F814, symSize: 0x10 }
  - { offsetInCU: 0x7E98, offset: 0x7E98, size: 0x8, addend: 0x0, symName: __ZNSt3__117__libcpp_allocateB7v160006Emm, symObjAddr: 0xCBC8, symBinAddr: 0x10000FCE4, symSize: 0x28 }
  - { offsetInCU: 0x7ED5, offset: 0x7ED5, size: 0x8, addend: 0x0, symName: __ZNSt3__121__libcpp_operator_newB7v160006IJmEEEPvDpT_, symObjAddr: 0xCC04, symBinAddr: 0x10000FD20, symSize: 0x24 }
  - { offsetInCU: 0x7F41, offset: 0x7F41, size: 0x8, addend: 0x0, symName: __ZNSt3__1neB7v160006IPcEEbRKNS_11__wrap_iterIT_EES6_, symObjAddr: 0xCDAC, symBinAddr: 0x10000FEC8, symSize: 0x34 }
  - { offsetInCU: 0x7F84, offset: 0x7F84, size: 0x8, addend: 0x0, symName: __ZNSt3__1eqB7v160006IPcEEbRKNS_11__wrap_iterIT_EES6_, symObjAddr: 0xCE18, symBinAddr: 0x10000FF34, symSize: 0x48 }
  - { offsetInCU: 0x7FC7, offset: 0x7FC7, size: 0x8, addend: 0x0, symName: __ZNSt3__119__debug_db_insert_cB7v160006INS_6vectorIP8SLandlotNS_9allocatorIS3_EEEEEEvPT_, symObjAddr: 0xCF00, symBinAddr: 0x10001001C, symSize: 0x10 }
  - { offsetInCU: 0x7FF8, offset: 0x7FF8, size: 0x8, addend: 0x0, symName: __ZNSt3__118__debug_db_erase_cB7v160006INS_6vectorIP8SLandlotNS_9allocatorIS3_EEEEEEvPT_, symObjAddr: 0xD1BC, symBinAddr: 0x1000102D8, symSize: 0x10 }
  - { offsetInCU: 0x8029, offset: 0x8029, size: 0x8, addend: 0x0, symName: __ZNSt3__112__to_addressB7v160006IP8SLandlotEEPT_S4_, symObjAddr: 0xD2D8, symBinAddr: 0x1000103F4, symSize: 0x14 }
  - { offsetInCU: 0x805E, offset: 0x805E, size: 0x8, addend: 0x0, symName: __ZNSt3__119__libcpp_deallocateB7v160006EPvmm, symObjAddr: 0xD43C, symBinAddr: 0x100010558, symSize: 0x30 }
  - { offsetInCU: 0x80A6, offset: 0x80A6, size: 0x8, addend: 0x0, symName: __ZNSt3__127__do_deallocate_handle_sizeB7v160006IJEEEvPvmDpT_, symObjAddr: 0xD46C, symBinAddr: 0x100010588, symSize: 0x28 }
  - { offsetInCU: 0x80E4, offset: 0x80E4, size: 0x8, addend: 0x0, symName: __ZNSt3__124__libcpp_operator_deleteB7v160006IJPvEEEvDpT_, symObjAddr: 0xD494, symBinAddr: 0x1000105B0, symSize: 0x24 }
  - { offsetInCU: 0x8119, offset: 0x8119, size: 0x8, addend: 0x0, symName: __ZNSt3__122__make_exception_guardB7v160006INS_6vectorIP8SLandlotNS_9allocatorIS3_EEE16__destroy_vectorEEENS_28__exception_guard_exceptionsIT_EES9_, symObjAddr: 0xD6DC, symBinAddr: 0x1000107F8, symSize: 0x40 }
  - { offsetInCU: 0x814E, offset: 0x814E, size: 0x8, addend: 0x0, symName: __ZNSt3__119__allocate_at_leastB7v160006INS_9allocatorIP8SLandlotEEEENS_19__allocation_resultINS_16allocator_traitsIT_E7pointerEEERS7_m, symObjAddr: 0xDA20, symBinAddr: 0x100010B3C, symSize: 0x40 }
  - { offsetInCU: 0x8191, offset: 0x8191, size: 0x8, addend: 0x0, symName: __ZNSt3__13minB7v160006ImEERKT_S3_S3_, symObjAddr: 0xDB34, symBinAddr: 0x100010C50, symSize: 0x2C }
  - { offsetInCU: 0x83D5, offset: 0x83D5, size: 0x8, addend: 0x0, symName: __ZNSt3__13minB7v160006ImNS_6__lessImmEEEERKT_S5_S5_T0_, symObjAddr: 0xDB98, symBinAddr: 0x100010CB4, symSize: 0x54 }
  - { offsetInCU: 0x846A, offset: 0x846A, size: 0x8, addend: 0x0, symName: __ZNSt3__120__throw_length_errorB7v160006EPKc, symObjAddr: 0xDC3C, symBinAddr: 0x100010D58, symSize: 0x64 }
  - { offsetInCU: 0x8492, offset: 0x8492, size: 0x8, addend: 0x0, symName: __ZNSt3__130__uninitialized_allocator_copyB7v160006INS_9allocatorIP8SLandlotEEPS3_S5_S5_EET2_RT_T0_T1_S6_, symObjAddr: 0xDE18, symBinAddr: 0x100010F34, symSize: 0xFC }
  - { offsetInCU: 0x8530, offset: 0x8530, size: 0x8, addend: 0x0, symName: __ZNSt3__122__make_exception_guardB7v160006INS_29_AllocatorDestroyRangeReverseINS_9allocatorIP8SLandlotEEPS4_EEEENS_28__exception_guard_exceptionsIT_EES9_, symObjAddr: 0xDF84, symBinAddr: 0x1000110A0, symSize: 0x4C }
  - { offsetInCU: 0x8566, offset: 0x8566, size: 0x8, addend: 0x0, symName: __ZNSt3__119__allocator_destroyB7v160006INS_9allocatorIP8SLandlotEENS_16reverse_iteratorIPS3_EES7_EEvRT_T0_T1_, symObjAddr: 0xE204, symBinAddr: 0x100011320, symSize: 0x70 }
  - { offsetInCU: 0x85C9, offset: 0x85C9, size: 0x8, addend: 0x0, symName: __ZNSt3__1neB7v160006IPP8SLandlotS3_EEbRKNS_16reverse_iteratorIT_EERKNS4_IT0_EE, symObjAddr: 0xE2A8, symBinAddr: 0x1000113C4, symSize: 0x48 }
  - { offsetInCU: 0x8615, offset: 0x8615, size: 0x8, addend: 0x0, symName: __ZNSt3__112__to_addressB7v160006INS_16reverse_iteratorIPP8SLandlotEEvEENS_5decayIDTclsr19__to_address_helperIT_EE6__callclsr3stdE7declvalIRKS7_EEEEE4typeES9_, symObjAddr: 0xE2F0, symBinAddr: 0x10001140C, symSize: 0x24 }
  - { offsetInCU: 0x8674, offset: 0x8674, size: 0x8, addend: 0x0, symName: __ZNSt3__120__throw_out_of_rangeB7v160006EPKc, symObjAddr: 0xE490, symBinAddr: 0x1000115AC, symSize: 0x64 }
  - { offsetInCU: 0x869E, offset: 0x869E, size: 0x8, addend: 0x0, symName: __ZNSt3__112__to_addressB7v160006IKcEEPT_S3_, symObjAddr: 0xE61C, symBinAddr: 0x100011738, symSize: 0x14 }
  - { offsetInCU: 0x8706, offset: 0x8706, size: 0x8, addend: 0x0, symName: __ZNSt3__118__constexpr_memcmpB7v160006IcEEiPKT_S3_m, symObjAddr: 0xE6E8, symBinAddr: 0x100011804, symSize: 0x34 }
  - { offsetInCU: 0x877B, offset: 0x877B, size: 0x8, addend: 0x0, symName: __ZNSt3__118__lower_bound_implB7v160006INS_17_ClassicAlgPolicyENS_11__wrap_iterIPKP8SLandlotEES7_S4_NS_10__identityEPFbPKS3_SA_EEET0_SD_T1_RKT2_RT4_RT3_, symObjAddr: 0xEA24, symBinAddr: 0x100011B40, symSize: 0x108 }
  - { offsetInCU: 0x8A1E, offset: 0x8A1E, size: 0x8, addend: 0x0, symName: __ZNSt3__115__half_positiveB7v160006IlEENS_9enable_ifIXsr11is_integralIT_EE5valueES2_E4typeES2_, symObjAddr: 0xEB68, symBinAddr: 0x100011C84, symSize: 0x1C }
  - { offsetInCU: 0x8A53, offset: 0x8A53, size: 0x8, addend: 0x0, symName: __ZNSt3__18__invokeB7v160006IRPFbPK8SLandlotS3_EJRKPS1_S9_EEEDTclclsr3stdE7declvalIT_EEspclsr3stdE7declvalIT0_EEEEOSA_DpOSB_, symObjAddr: 0xEBB0, symBinAddr: 0x100011CCC, symSize: 0x44 }
  - { offsetInCU: 0x8AB8, offset: 0x8AB8, size: 0x8, addend: 0x0, symName: __ZNSt3__18__invokeB7v160006IRNS_10__identityEJRKP8SLandlotEEEDTclclsr3stdE7declvalIT_EEspclsr3stdE7declvalIT0_EEEEOS7_DpOS8_, symObjAddr: 0xEBF4, symBinAddr: 0x100011D10, symSize: 0x2C }
  - { offsetInCU: 0x8B09, offset: 0x8B09, size: 0x8, addend: 0x0, symName: __ZNSt3__18distanceB7v160006INS_11__wrap_iterIPKP8SLandlotEEEENS_15iterator_traitsIT_E15difference_typeES8_S8_, symObjAddr: 0xEC40, symBinAddr: 0x100011D5C, symSize: 0x3C }
  - { offsetInCU: 0x8B4C, offset: 0x8B4C, size: 0x8, addend: 0x0, symName: __ZNSt3__110__distanceB7v160006INS_11__wrap_iterIPKP8SLandlotEEEENS_15iterator_traitsIT_E15difference_typeES8_S8_NS_26random_access_iterator_tagE, symObjAddr: 0xEC7C, symBinAddr: 0x100011D98, symSize: 0x30 }
  - { offsetInCU: 0x8B99, offset: 0x8B99, size: 0x8, addend: 0x0, symName: __ZNSt3__1miB7v160006IPKP8SLandlotS4_EENS_11__wrap_iterIT_E15difference_typeERKS7_RKNS5_IT0_EE, symObjAddr: 0xECAC, symBinAddr: 0x100011DC8, symSize: 0x48 }
  - { offsetInCU: 0x8BE5, offset: 0x8BE5, size: 0x8, addend: 0x0, symName: __ZNSt3__121__convert_to_integralB7v160006El, symObjAddr: 0xED5C, symBinAddr: 0x100011E78, symSize: 0x14 }
  - { offsetInCU: 0x8C11, offset: 0x8C11, size: 0x8, addend: 0x0, symName: __ZNSt3__19__advanceB7v160006INS_11__wrap_iterIPKP8SLandlotEEEEvRT_NS_15iterator_traitsIS7_E15difference_typeENS_26random_access_iterator_tagE, symObjAddr: 0xED70, symBinAddr: 0x100011E8C, symSize: 0x2C }
  - { offsetInCU: 0x8CF0, offset: 0x8CF0, size: 0x8, addend: 0x0, symName: __ZNSt3__1eqB7v160006IPKP8SLandlotEEbRKNS_11__wrap_iterIT_EES9_, symObjAddr: 0xEDDC, symBinAddr: 0x100011EF8, symSize: 0x48 }
  - { offsetInCU: 0x8D33, offset: 0x8D33, size: 0x8, addend: 0x0, symName: __ZNSt3__1eqB7v160006IPK5OwnerEEbRKNS_11__wrap_iterIT_EES8_, symObjAddr: 0xEEB8, symBinAddr: 0x100011FD4, symSize: 0x48 }
  - { offsetInCU: 0x8D76, offset: 0x8D76, size: 0x8, addend: 0x0, symName: __ZNSt3__119__debug_db_insert_cB7v160006INS_6vectorI5OwnerNS_9allocatorIS2_EEEEEEvPT_, symObjAddr: 0xEFA0, symBinAddr: 0x1000120BC, symSize: 0x10 }
  - { offsetInCU: 0x8DA7, offset: 0x8DA7, size: 0x8, addend: 0x0, symName: __ZNSt3__118__debug_db_erase_cB7v160006INS_6vectorI5OwnerNS_9allocatorIS2_EEEEEEvPT_, symObjAddr: 0xF278, symBinAddr: 0x100012394, symSize: 0x10 }
  - { offsetInCU: 0x8DD8, offset: 0x8DD8, size: 0x8, addend: 0x0, symName: __ZNSt3__112__to_addressB7v160006I5OwnerEEPT_S3_, symObjAddr: 0xF3BC, symBinAddr: 0x1000124D8, symSize: 0x14 }
  - { offsetInCU: 0x8E0D, offset: 0x8E0D, size: 0x8, addend: 0x0, symName: __ZNSt3__1eqB7v160006IPP8SLandlotEEbRKNS_11__wrap_iterIT_EES8_, symObjAddr: 0xF664, symBinAddr: 0x100012780, symSize: 0x48 }
  - { offsetInCU: 0x8E50, offset: 0x8E50, size: 0x8, addend: 0x0, symName: __ZNSt3__118__lower_bound_implB7v160006INS_17_ClassicAlgPolicyENS_11__wrap_iterIPP8SLandlotEES6_S4_NS_10__identityEPFbPKS3_S9_EEET0_SC_T1_RKT2_RT4_RT3_, symObjAddr: 0xF6C4, symBinAddr: 0x1000127E0, symSize: 0x108 }
  - { offsetInCU: 0x8F22, offset: 0x8F22, size: 0x8, addend: 0x0, symName: __ZNSt3__18__invokeB7v160006IRPFbPK8SLandlotS3_EJRPS1_RKS7_EEEDTclclsr3stdE7declvalIT_EEspclsr3stdE7declvalIT0_EEEEOSB_DpOSC_, symObjAddr: 0xF834, symBinAddr: 0x100012950, symSize: 0x44 }
  - { offsetInCU: 0x8F87, offset: 0x8F87, size: 0x8, addend: 0x0, symName: __ZNSt3__18__invokeB7v160006IRNS_10__identityEJRP8SLandlotEEEDTclclsr3stdE7declvalIT_EEspclsr3stdE7declvalIT0_EEEEOS6_DpOS7_, symObjAddr: 0xF878, symBinAddr: 0x100012994, symSize: 0x2C }
  - { offsetInCU: 0x8FD8, offset: 0x8FD8, size: 0x8, addend: 0x0, symName: __ZNSt3__18distanceB7v160006INS_11__wrap_iterIPP8SLandlotEEEENS_15iterator_traitsIT_E15difference_typeES7_S7_, symObjAddr: 0xF8A4, symBinAddr: 0x1000129C0, symSize: 0x3C }
  - { offsetInCU: 0x901B, offset: 0x901B, size: 0x8, addend: 0x0, symName: __ZNSt3__110__distanceB7v160006INS_11__wrap_iterIPP8SLandlotEEEENS_15iterator_traitsIT_E15difference_typeES7_S7_NS_26random_access_iterator_tagE, symObjAddr: 0xF8E0, symBinAddr: 0x1000129FC, symSize: 0x30 }
  - { offsetInCU: 0x9068, offset: 0x9068, size: 0x8, addend: 0x0, symName: __ZNSt3__1miB7v160006IPP8SLandlotS3_EENS_11__wrap_iterIT_E15difference_typeERKS6_RKNS4_IT0_EE, symObjAddr: 0xF910, symBinAddr: 0x100012A2C, symSize: 0x48 }
  - { offsetInCU: 0x90B4, offset: 0x90B4, size: 0x8, addend: 0x0, symName: __ZNSt3__19__advanceB7v160006INS_11__wrap_iterIPP8SLandlotEEEEvRT_NS_15iterator_traitsIS6_E15difference_typeENS_26random_access_iterator_tagE, symObjAddr: 0xF9A8, symBinAddr: 0x100012AC4, symSize: 0x2C }
  - { offsetInCU: 0x90FD, offset: 0x90FD, size: 0x8, addend: 0x0, symName: __ZNSt3__118__lower_bound_implB7v160006INS_17_ClassicAlgPolicyENS_11__wrap_iterIP5OwnerEES5_S3_NS_10__identityEPFbRKS3_S8_EEET0_SB_T1_RKT2_RT4_RT3_, symObjAddr: 0xFAA8, symBinAddr: 0x100012BC4, symSize: 0x108 }
  - { offsetInCU: 0x91CF, offset: 0x91CF, size: 0x8, addend: 0x0, symName: __ZNSt3__18__invokeB7v160006IRPFbRK5OwnerS3_EJRS1_S3_EEEDTclclsr3stdE7declvalIT_EEspclsr3stdE7declvalIT0_EEEEOS8_DpOS9_, symObjAddr: 0xFC18, symBinAddr: 0x100012D34, symSize: 0x3C }
  - { offsetInCU: 0x9234, offset: 0x9234, size: 0x8, addend: 0x0, symName: __ZNSt3__18__invokeB7v160006IRNS_10__identityEJR5OwnerEEEDTclclsr3stdE7declvalIT_EEspclsr3stdE7declvalIT0_EEEEOS5_DpOS6_, symObjAddr: 0xFC54, symBinAddr: 0x100012D70, symSize: 0x2C }
  - { offsetInCU: 0x9285, offset: 0x9285, size: 0x8, addend: 0x0, symName: __ZNSt3__18distanceB7v160006INS_11__wrap_iterIP5OwnerEEEENS_15iterator_traitsIT_E15difference_typeES6_S6_, symObjAddr: 0xFCB8, symBinAddr: 0x100012DD4, symSize: 0x3C }
  - { offsetInCU: 0x92C8, offset: 0x92C8, size: 0x8, addend: 0x0, symName: __ZNSt3__110__distanceB7v160006INS_11__wrap_iterIP5OwnerEEEENS_15iterator_traitsIT_E15difference_typeES6_S6_NS_26random_access_iterator_tagE, symObjAddr: 0xFCF4, symBinAddr: 0x100012E10, symSize: 0x30 }
  - { offsetInCU: 0x9315, offset: 0x9315, size: 0x8, addend: 0x0, symName: __ZNSt3__1miB7v160006IP5OwnerS2_EENS_11__wrap_iterIT_E15difference_typeERKS5_RKNS3_IT0_EE, symObjAddr: 0xFD24, symBinAddr: 0x100012E40, symSize: 0x48 }
  - { offsetInCU: 0x9361, offset: 0x9361, size: 0x8, addend: 0x0, symName: __ZNSt3__19__advanceB7v160006INS_11__wrap_iterIP5OwnerEEEEvRT_NS_15iterator_traitsIS5_E15difference_typeENS_26random_access_iterator_tagE, symObjAddr: 0xFDD4, symBinAddr: 0x100012EF0, symSize: 0x2C }
  - { offsetInCU: 0x93AA, offset: 0x93AA, size: 0x8, addend: 0x0, symName: __ZNSt3__1miB7v160006IPK5OwnerPS1_EENS_11__wrap_iterIT_E15difference_typeERKS7_RKNS5_IT0_EE, symObjAddr: 0xFE88, symBinAddr: 0x100012FA4, symSize: 0x48 }
  - { offsetInCU: 0x93F6, offset: 0x93F6, size: 0x8, addend: 0x0, symName: __ZNSt3__113move_backwardB7v160006IP5OwnerS2_EET0_T_S4_S3_, symObjAddr: 0x10820, symBinAddr: 0x10001393C, symSize: 0x40 }
  - { offsetInCU: 0x9450, offset: 0x9450, size: 0x8, addend: 0x0, symName: __ZNSt3__115__move_backwardB7v160006INS_17_ClassicAlgPolicyEP5OwnerS3_S3_EENS_4pairIT0_T2_EES5_T1_S6_, symObjAddr: 0x10860, symBinAddr: 0x10001397C, symSize: 0x44 }
  - { offsetInCU: 0x94BC, offset: 0x94BC, size: 0x8, addend: 0x0, symName: __ZNSt3__123__dispatch_copy_or_moveB7v160006INS_17_ClassicAlgPolicyENS_20__move_backward_loopIS1_EENS_23__move_backward_trivialEP5OwnerS6_S6_EENS_4pairIT2_T4_EES8_T3_S9_, symObjAddr: 0x108A4, symBinAddr: 0x1000139C0, symSize: 0x70 }
  - { offsetInCU: 0x953A, offset: 0x953A, size: 0x8, addend: 0x0, symName: __ZNSt3__121__unwrap_and_dispatchB7v160006INS_20__move_backward_loopINS_17_ClassicAlgPolicyEEEP5OwnerS5_S5_Li0EEENS_4pairIT0_T2_EES7_T1_S8_, symObjAddr: 0x10914, symBinAddr: 0x100013A30, symSize: 0xB4 }
  - { offsetInCU: 0x95C8, offset: 0x95C8, size: 0x8, addend: 0x0, symName: __ZNSt3__121__unwrap_and_dispatchB7v160006INS_10__overloadINS_20__move_backward_loopINS_17_ClassicAlgPolicyEEENS_23__move_backward_trivialEEEP5OwnerS8_S8_Li0EEENS_4pairIT0_T2_EESA_T1_SB_, symObjAddr: 0x109C8, symBinAddr: 0x100013AE4, symSize: 0xB4 }
  - { offsetInCU: 0x9656, offset: 0x9656, size: 0x8, addend: 0x0, symName: __ZNSt3__114__unwrap_rangeB7v160006IP5OwnerS2_EENS_4pairIT0_S4_EET_S6_, symObjAddr: 0x10A7C, symBinAddr: 0x100013B98, symSize: 0x60 }
  - { offsetInCU: 0x97A1, offset: 0x97A1, size: 0x8, addend: 0x0, symName: __ZNSt3__113__unwrap_iterB7v160006IP5OwnerNS_18__unwrap_iter_implIS2_Lb1EEELi0EEEDTclsrT0_8__unwrapclsr3stdE7declvalIT_EEEES6_, symObjAddr: 0x10B80, symBinAddr: 0x100013C9C, symSize: 0x24 }
  - { offsetInCU: 0x97E5, offset: 0x97E5, size: 0x8, addend: 0x0, symName: __ZNSt3__19make_pairB7v160006IP5OwnerS2_EENS_4pairINS_18__unwrap_ref_decayIT_E4typeENS4_IT0_E4typeEEEOS5_OS8_, symObjAddr: 0x10BA4, symBinAddr: 0x100013CC0, symSize: 0x38 }
  - { offsetInCU: 0x9834, offset: 0x9834, size: 0x8, addend: 0x0, symName: __ZNSt3__114__rewrap_rangeB7v160006IP5OwnerS2_EET_S3_T0_, symObjAddr: 0x10BDC, symBinAddr: 0x100013CF8, symSize: 0x2C }
  - { offsetInCU: 0x9880, offset: 0x9880, size: 0x8, addend: 0x0, symName: __ZNSt3__113__rewrap_iterB7v160006IP5OwnerS2_NS_18__unwrap_iter_implIS2_Lb1EEEEET_S5_T0_, symObjAddr: 0x10C08, symBinAddr: 0x100013D24, symSize: 0x50 }
  - { offsetInCU: 0x994C, offset: 0x994C, size: 0x8, addend: 0x0, symName: __ZNSt3__18distanceB7v160006IPP8SLandlotEENS_15iterator_traitsIT_E15difference_typeES5_S5_, symObjAddr: 0x10FAC, symBinAddr: 0x1000140C8, symSize: 0x2C }
  - { offsetInCU: 0x998F, offset: 0x998F, size: 0x8, addend: 0x0, symName: __ZNSt3__14copyB7v160006IPP8SLandlotS3_EET0_T_S5_S4_, symObjAddr: 0x11028, symBinAddr: 0x100014144, symSize: 0x40 }
  - { offsetInCU: 0x99E9, offset: 0x99E9, size: 0x8, addend: 0x0, symName: __ZNSt3__125__debug_db_invalidate_allB7v160006INS_6vectorIP8SLandlotNS_9allocatorIS3_EEEEEEvPT_, symObjAddr: 0x11230, symBinAddr: 0x10001434C, symSize: 0x10 }
  - { offsetInCU: 0x9A1A, offset: 0x9A1A, size: 0x8, addend: 0x0, symName: __ZNSt3__110__distanceB7v160006IPP8SLandlotEENS_15iterator_traitsIT_E15difference_typeES5_S5_NS_26random_access_iterator_tagE, symObjAddr: 0x11240, symBinAddr: 0x10001435C, symSize: 0x28 }
  - { offsetInCU: 0x9A67, offset: 0x9A67, size: 0x8, addend: 0x0, symName: __ZNSt3__121__convert_to_integralB7v160006Em, symObjAddr: 0x11268, symBinAddr: 0x100014384, symSize: 0x14 }
  - { offsetInCU: 0x9A93, offset: 0x9A93, size: 0x8, addend: 0x0, symName: __ZNSt3__19__advanceB7v160006IPP8SLandlotEEvRT_NS_15iterator_traitsIS4_E15difference_typeENS_26random_access_iterator_tagE, symObjAddr: 0x1127C, symBinAddr: 0x100014398, symSize: 0x28 }
  - { offsetInCU: 0x9ADC, offset: 0x9ADC, size: 0x8, addend: 0x0, symName: __ZNSt3__16__copyB7v160006INS_17_ClassicAlgPolicyEPP8SLandlotS4_S4_EENS_4pairIT0_T2_EES6_T1_S7_, symObjAddr: 0x112A4, symBinAddr: 0x1000143C0, symSize: 0x44 }
  - { offsetInCU: 0x9B48, offset: 0x9B48, size: 0x8, addend: 0x0, symName: __ZNSt3__123__dispatch_copy_or_moveB7v160006INS_17_ClassicAlgPolicyENS_11__copy_loopIS1_EENS_14__copy_trivialEPP8SLandlotS7_S7_EENS_4pairIT2_T4_EES9_T3_SA_, symObjAddr: 0x112E8, symBinAddr: 0x100014404, symSize: 0x54 }
  - { offsetInCU: 0x9BC6, offset: 0x9BC6, size: 0x8, addend: 0x0, symName: __ZNSt3__121__unwrap_and_dispatchB7v160006INS_10__overloadINS_11__copy_loopINS_17_ClassicAlgPolicyEEENS_14__copy_trivialEEEPP8SLandlotS9_S9_Li0EEENS_4pairIT0_T2_EESB_T1_SC_, symObjAddr: 0x1133C, symBinAddr: 0x100014458, symSize: 0xB4 }
  - { offsetInCU: 0x9C54, offset: 0x9C54, size: 0x8, addend: 0x0, symName: __ZNSt3__114__unwrap_rangeB7v160006IPP8SLandlotS3_EENS_4pairIT0_S5_EET_S7_, symObjAddr: 0x113F0, symBinAddr: 0x10001450C, symSize: 0x60 }
  - { offsetInCU: 0x9D93, offset: 0x9D93, size: 0x8, addend: 0x0, symName: __ZNSt3__113__unwrap_iterB7v160006IPP8SLandlotNS_18__unwrap_iter_implIS3_Lb1EEELi0EEEDTclsrT0_8__unwrapclsr3stdE7declvalIT_EEEES7_, symObjAddr: 0x11498, symBinAddr: 0x1000145B4, symSize: 0x24 }
  - { offsetInCU: 0x9DD7, offset: 0x9DD7, size: 0x8, addend: 0x0, symName: __ZNSt3__19make_pairB7v160006IPP8SLandlotS3_EENS_4pairINS_18__unwrap_ref_decayIT_E4typeENS5_IT0_E4typeEEEOS6_OS9_, symObjAddr: 0x114BC, symBinAddr: 0x1000145D8, symSize: 0x38 }
  - { offsetInCU: 0x9E26, offset: 0x9E26, size: 0x8, addend: 0x0, symName: __ZNSt3__114__rewrap_rangeB7v160006IPP8SLandlotS3_EET_S4_T0_, symObjAddr: 0x114F4, symBinAddr: 0x100014610, symSize: 0x2C }
  - { offsetInCU: 0x9E72, offset: 0x9E72, size: 0x8, addend: 0x0, symName: __ZNSt3__113__rewrap_iterB7v160006IPP8SLandlotS3_NS_18__unwrap_iter_implIS3_Lb1EEEEET_S6_T0_, symObjAddr: 0x11520, symBinAddr: 0x10001463C, symSize: 0x50 }
  - { offsetInCU: 0x9EC7, offset: 0x9EC7, size: 0x8, addend: 0x0, symName: __ZNSt3__119__copy_trivial_implB7v160006IP8SLandlotS2_EENS_4pairIPT_PT0_EES5_S5_S7_, symObjAddr: 0x11570, symBinAddr: 0x10001468C, symSize: 0x84 }
  - { offsetInCU: 0x9F2F, offset: 0x9F2F, size: 0x8, addend: 0x0, symName: __ZNSt3__19make_pairB7v160006IRPP8SLandlotS3_EENS_4pairINS_18__unwrap_ref_decayIT_E4typeENS6_IT0_E4typeEEEOS7_OSA_, symObjAddr: 0x115F4, symBinAddr: 0x100014710, symSize: 0x38 }
  - { offsetInCU: 0x9FD1, offset: 0x9FD1, size: 0x8, addend: 0x0, symName: __ZNSt3__13maxB7v160006ImEERKT_S3_S3_, symObjAddr: 0x11840, symBinAddr: 0x10001495C, symSize: 0x2C }
  - { offsetInCU: 0xA014, offset: 0xA014, size: 0x8, addend: 0x0, symName: __ZNSt3__13maxB7v160006ImNS_6__lessImmEEEERKT_S5_S5_T0_, symObjAddr: 0x1186C, symBinAddr: 0x100014988, symSize: 0x54 }
  - { offsetInCU: 0xA06E, offset: 0xA06E, size: 0x8, addend: 0x0, symName: __ZNSt3__119__allocate_at_leastB7v160006INS_9allocatorI5OwnerEEEENS_19__allocation_resultINS_16allocator_traitsIT_E7pointerEEERS6_m, symObjAddr: 0x11B08, symBinAddr: 0x100014C24, symSize: 0x40 }
  - { offsetInCU: 0xA0B1, offset: 0xA0B1, size: 0x8, addend: 0x0, symName: __ZNSt3__14moveB7v160006IP5OwnerS2_EET0_T_S4_S3_, symObjAddr: 0x11CF0, symBinAddr: 0x100014E0C, symSize: 0x40 }
  - { offsetInCU: 0xA10B, offset: 0xA10B, size: 0x8, addend: 0x0, symName: __ZNSt3__14swapB7v160006IP5OwnerEEvRT_S4_, symObjAddr: 0x11E68, symBinAddr: 0x100014F84, symSize: 0x3C }
  - { offsetInCU: 0xA15C, offset: 0xA15C, size: 0x8, addend: 0x0, symName: __ZNSt3__16__moveB7v160006INS_17_ClassicAlgPolicyEP5OwnerS3_S3_EENS_4pairIT0_T2_EES5_T1_S6_, symObjAddr: 0x11EA4, symBinAddr: 0x100014FC0, symSize: 0x44 }
  - { offsetInCU: 0xA1C8, offset: 0xA1C8, size: 0x8, addend: 0x0, symName: __ZNSt3__123__dispatch_copy_or_moveB7v160006INS_17_ClassicAlgPolicyENS_11__move_loopIS1_EENS_14__move_trivialEP5OwnerS6_S6_EENS_4pairIT2_T4_EES8_T3_S9_, symObjAddr: 0x11EE8, symBinAddr: 0x100015004, symSize: 0x70 }
  - { offsetInCU: 0xA246, offset: 0xA246, size: 0x8, addend: 0x0, symName: __ZNSt3__121__unwrap_and_dispatchB7v160006INS_11__move_loopINS_17_ClassicAlgPolicyEEEP5OwnerS5_S5_Li0EEENS_4pairIT0_T2_EES7_T1_S8_, symObjAddr: 0x11F58, symBinAddr: 0x100015074, symSize: 0xB4 }
  - { offsetInCU: 0xA2D4, offset: 0xA2D4, size: 0x8, addend: 0x0, symName: __ZNSt3__121__unwrap_and_dispatchB7v160006INS_10__overloadINS_11__move_loopINS_17_ClassicAlgPolicyEEENS_14__move_trivialEEEP5OwnerS8_S8_Li0EEENS_4pairIT0_T2_EESA_T1_SB_, symObjAddr: 0x1200C, symBinAddr: 0x100015128, symSize: 0xB4 }
  - { offsetInCU: 0xA3F3, offset: 0xA3F3, size: 0x8, addend: 0x0, symName: __ZNSt3__18distanceB7v160006INS_13move_iteratorIP5OwnerEEEENS_15iterator_traitsIT_E15difference_typeES6_S6_, symObjAddr: 0x12150, symBinAddr: 0x10001526C, symSize: 0x3C }
  - { offsetInCU: 0xA436, offset: 0xA436, size: 0x8, addend: 0x0, symName: __ZNSt3__110__distanceB7v160006INS_13move_iteratorIP5OwnerEEEENS_15iterator_traitsIT_E15difference_typeES6_S6_NS_26random_access_iterator_tagE, symObjAddr: 0x1222C, symBinAddr: 0x100015348, symSize: 0x30 }
  - { offsetInCU: 0xA483, offset: 0xA483, size: 0x8, addend: 0x0, symName: __ZNSt3__1miB7v160006IP5OwnerS2_EENS_13move_iteratorIT_E15difference_typeERKS5_RKNS3_IT0_EE, symObjAddr: 0x1225C, symBinAddr: 0x100015378, symSize: 0x48 }
  - { offsetInCU: 0xA4D2, offset: 0xA4D2, size: 0x8, addend: 0x0, symName: __ZNSt3__142__uninitialized_allocator_move_if_noexceptB7v160006INS_9allocatorI5OwnerEENS_16reverse_iteratorIPS2_EES6_S6_EET2_RT_T0_T1_S7_, symObjAddr: 0x12348, symBinAddr: 0x100015464, symSize: 0x134 }
  - { offsetInCU: 0xA572, offset: 0xA572, size: 0x8, addend: 0x0, symName: __ZNSt3__142__uninitialized_allocator_move_if_noexceptB7v160006INS_9allocatorI5OwnerEEPS2_S4_S4_EET2_RT_T0_T1_S5_, symObjAddr: 0x124C8, symBinAddr: 0x1000155E4, symSize: 0xFC }
  - { offsetInCU: 0xA610, offset: 0xA610, size: 0x8, addend: 0x0, symName: __ZNSt3__125__debug_db_invalidate_allB7v160006INS_6vectorI5OwnerNS_9allocatorIS2_EEEEEEvPT_, symObjAddr: 0x1268C, symBinAddr: 0x1000157A8, symSize: 0x10 }
  - { offsetInCU: 0xA641, offset: 0xA641, size: 0x8, addend: 0x0, symName: __ZNSt3__122__make_exception_guardB7v160006INS_29_AllocatorDestroyRangeReverseINS_9allocatorI5OwnerEENS_16reverse_iteratorIPS3_EEEEEENS_28__exception_guard_exceptionsIT_EESA_, symObjAddr: 0x1269C, symBinAddr: 0x1000157B8, symSize: 0x4C }
  - { offsetInCU: 0xA677, offset: 0xA677, size: 0x8, addend: 0x0, symName: __ZNSt3__1neB7v160006IP5OwnerS2_EEbRKNS_16reverse_iteratorIT_EERKNS3_IT0_EE, symObjAddr: 0x1272C, symBinAddr: 0x100015848, symSize: 0x48 }
  - { offsetInCU: 0xA6C3, offset: 0xA6C3, size: 0x8, addend: 0x0, symName: __ZNSt3__112__to_addressB7v160006INS_16reverse_iteratorIP5OwnerEEvEENS_5decayIDTclsr19__to_address_helperIT_EE6__callclsr3stdE7declvalIRKS6_EEEEE4typeES8_, symObjAddr: 0x127A8, symBinAddr: 0x1000158C4, symSize: 0x24 }
  - { offsetInCU: 0xA722, offset: 0xA722, size: 0x8, addend: 0x0, symName: __ZNSt3__119__allocator_destroyB7v160006INS_9allocatorI5OwnerEENS_16reverse_iteratorINS4_IPS2_EEEES7_EEvRT_T0_T1_, symObjAddr: 0x12A94, symBinAddr: 0x100015BB0, symSize: 0x70 }
  - { offsetInCU: 0xA787, offset: 0xA787, size: 0x8, addend: 0x0, symName: __ZNSt3__1neB7v160006INS_16reverse_iteratorIP5OwnerEES4_EEbRKNS1_IT_EERKNS1_IT0_EE, symObjAddr: 0x12B40, symBinAddr: 0x100015C5C, symSize: 0x60 }
  - { offsetInCU: 0xA7D3, offset: 0xA7D3, size: 0x8, addend: 0x0, symName: __ZNSt3__112__to_addressB7v160006INS_16reverse_iteratorINS1_IP5OwnerEEEEvEENS_5decayIDTclsr19__to_address_helperIT_EE6__callclsr3stdE7declvalIRKS7_EEEEE4typeES9_, symObjAddr: 0x12BA0, symBinAddr: 0x100015CBC, symSize: 0x24 }
  - { offsetInCU: 0xA832, offset: 0xA832, size: 0x8, addend: 0x0, symName: __ZNSt3__122__make_exception_guardB7v160006INS_29_AllocatorDestroyRangeReverseINS_9allocatorI5OwnerEEPS3_EEEENS_28__exception_guard_exceptionsIT_EES8_, symObjAddr: 0x12D30, symBinAddr: 0x100015E4C, symSize: 0x4C }
  - { offsetInCU: 0xA868, offset: 0xA868, size: 0x8, addend: 0x0, symName: __ZNSt3__119__allocator_destroyB7v160006INS_9allocatorI5OwnerEENS_16reverse_iteratorIPS2_EES6_EEvRT_T0_T1_, symObjAddr: 0x12F54, symBinAddr: 0x100016070, symSize: 0x70 }
  - { offsetInCU: 0xA8CB, offset: 0xA8CB, size: 0x8, addend: 0x0, symName: __ZNSt3__1miB7v160006IPKP8SLandlotPS2_EENS_11__wrap_iterIT_E15difference_typeERKS8_RKNS6_IT0_EE, symObjAddr: 0x131B8, symBinAddr: 0x1000162D4, symSize: 0x48 }
  - { offsetInCU: 0xA94A, offset: 0xA94A, size: 0x8, addend: 0x0, symName: __ZNSt3__113move_backwardB7v160006IPP8SLandlotS3_EET0_T_S5_S4_, symObjAddr: 0x138A4, symBinAddr: 0x1000169C0, symSize: 0x40 }
  - { offsetInCU: 0xA9A4, offset: 0xA9A4, size: 0x8, addend: 0x0, symName: __ZNSt3__115__move_backwardB7v160006INS_17_ClassicAlgPolicyEPP8SLandlotS4_S4_EENS_4pairIT0_T2_EES6_T1_S7_, symObjAddr: 0x1390C, symBinAddr: 0x100016A28, symSize: 0x44 }
  - { offsetInCU: 0xAA10, offset: 0xAA10, size: 0x8, addend: 0x0, symName: __ZNSt3__123__dispatch_copy_or_moveB7v160006INS_17_ClassicAlgPolicyENS_20__move_backward_loopIS1_EENS_23__move_backward_trivialEPP8SLandlotS7_S7_EENS_4pairIT2_T4_EES9_T3_SA_, symObjAddr: 0x13950, symBinAddr: 0x100016A6C, symSize: 0x54 }
  - { offsetInCU: 0xAA8E, offset: 0xAA8E, size: 0x8, addend: 0x0, symName: __ZNSt3__121__unwrap_and_dispatchB7v160006INS_10__overloadINS_20__move_backward_loopINS_17_ClassicAlgPolicyEEENS_23__move_backward_trivialEEEPP8SLandlotS9_S9_Li0EEENS_4pairIT0_T2_EESB_T1_SC_, symObjAddr: 0x139A4, symBinAddr: 0x100016AC0, symSize: 0xB4 }
  - { offsetInCU: 0xAB62, offset: 0xAB62, size: 0x8, addend: 0x0, symName: __ZNSt3__128__copy_backward_trivial_implB7v160006IP8SLandlotS2_EENS_4pairIPT_PT0_EES5_S5_S7_, symObjAddr: 0x13AA0, symBinAddr: 0x100016BBC, symSize: 0x94 }
  - { offsetInCU: 0xABCA, offset: 0xABCA, size: 0x8, addend: 0x0, symName: __ZNSt3__19make_pairB7v160006IRPP8SLandlotS4_EENS_4pairINS_18__unwrap_ref_decayIT_E4typeENS6_IT0_E4typeEEEOS7_OSA_, symObjAddr: 0x13B34, symBinAddr: 0x100016C50, symSize: 0x38 }
  - { offsetInCU: 0xAC19, offset: 0xAC19, size: 0x8, addend: 0x0, symName: __ZNSt3__14moveB7v160006IPP8SLandlotS3_EET0_T_S5_S4_, symObjAddr: 0x13D98, symBinAddr: 0x100016EB4, symSize: 0x40 }
  - { offsetInCU: 0xAC73, offset: 0xAC73, size: 0x8, addend: 0x0, symName: __ZNSt3__14swapB7v160006IPP8SLandlotEEvRT_S5_, symObjAddr: 0x13F10, symBinAddr: 0x10001702C, symSize: 0x3C }
  - { offsetInCU: 0xACC4, offset: 0xACC4, size: 0x8, addend: 0x0, symName: __ZNSt3__16__moveB7v160006INS_17_ClassicAlgPolicyEPP8SLandlotS4_S4_EENS_4pairIT0_T2_EES6_T1_S7_, symObjAddr: 0x13F4C, symBinAddr: 0x100017068, symSize: 0x44 }
  - { offsetInCU: 0xAD30, offset: 0xAD30, size: 0x8, addend: 0x0, symName: __ZNSt3__123__dispatch_copy_or_moveB7v160006INS_17_ClassicAlgPolicyENS_11__move_loopIS1_EENS_14__move_trivialEPP8SLandlotS7_S7_EENS_4pairIT2_T4_EES9_T3_SA_, symObjAddr: 0x13F90, symBinAddr: 0x1000170AC, symSize: 0x54 }
  - { offsetInCU: 0xADAE, offset: 0xADAE, size: 0x8, addend: 0x0, symName: __ZNSt3__121__unwrap_and_dispatchB7v160006INS_10__overloadINS_11__move_loopINS_17_ClassicAlgPolicyEEENS_14__move_trivialEEEPP8SLandlotS9_S9_Li0EEENS_4pairIT0_T2_EESB_T1_SC_, symObjAddr: 0x13FE4, symBinAddr: 0x100017100, symSize: 0xB4 }
  - { offsetInCU: 0xAE82, offset: 0xAE82, size: 0x8, addend: 0x0, symName: __ZNSt3__18distanceB7v160006INS_13move_iteratorIPP8SLandlotEEEENS_15iterator_traitsIT_E15difference_typeES7_S7_, symObjAddr: 0x140E0, symBinAddr: 0x1000171FC, symSize: 0x3C }
  - { offsetInCU: 0xAEC5, offset: 0xAEC5, size: 0x8, addend: 0x0, symName: __ZNSt3__110__distanceB7v160006INS_13move_iteratorIPP8SLandlotEEEENS_15iterator_traitsIT_E15difference_typeES7_S7_NS_26random_access_iterator_tagE, symObjAddr: 0x141BC, symBinAddr: 0x1000172D8, symSize: 0x30 }
  - { offsetInCU: 0xAF12, offset: 0xAF12, size: 0x8, addend: 0x0, symName: __ZNSt3__1miB7v160006IPP8SLandlotS3_EENS_13move_iteratorIT_E15difference_typeERKS6_RKNS4_IT0_EE, symObjAddr: 0x141EC, symBinAddr: 0x100017308, symSize: 0x48 }
  - { offsetInCU: 0xAF61, offset: 0xAF61, size: 0x8, addend: 0x0, symName: __ZNSt3__142__uninitialized_allocator_move_if_noexceptB7v160006INS_9allocatorIP8SLandlotEENS_16reverse_iteratorIPS3_EES7_S3_vEET1_RT_T0_SB_S8_, symObjAddr: 0x142D0, symBinAddr: 0x1000173EC, symSize: 0xE8 }
  - { offsetInCU: 0xAFDE, offset: 0xAFDE, size: 0x8, addend: 0x0, symName: __ZNSt3__142__uninitialized_allocator_move_if_noexceptB7v160006INS_9allocatorIP8SLandlotEEPS3_S5_S3_vEET1_RT_T0_S9_S6_, symObjAddr: 0x143B8, symBinAddr: 0x1000174D4, symSize: 0xA4 }
  - { offsetInCU: 0xB07F, offset: 0xB07F, size: 0x8, addend: 0x0, symName: __ZNSt3__114__construct_atB7v160006IP8SLandlotJS2_EPS2_EEPT_S5_DpOT0_, symObjAddr: 0x1445C, symBinAddr: 0x100017578, symSize: 0x2C }
  - { offsetInCU: 0xB0EF, offset: 0xB0EF, size: 0x8, addend: 0x0, symName: __ZNSt3__14moveB7v160006INS_16reverse_iteratorIPP8SLandlotEES5_EET0_T_S7_S6_, symObjAddr: 0x14488, symBinAddr: 0x1000175A4, symSize: 0x78 }
  - { offsetInCU: 0xB149, offset: 0xB149, size: 0x8, addend: 0x0, symName: __ZNSt3__16__moveB7v160006INS_17_ClassicAlgPolicyENS_16reverse_iteratorIPP8SLandlotEES6_S6_EENS_4pairIT0_T2_EES8_T1_S9_, symObjAddr: 0x14500, symBinAddr: 0x10001761C, symSize: 0x64 }
  - { offsetInCU: 0xB1B5, offset: 0xB1B5, size: 0x8, addend: 0x0, symName: __ZNSt3__123__dispatch_copy_or_moveB7v160006INS_17_ClassicAlgPolicyENS_11__move_loopIS1_EENS_14__move_trivialENS_16reverse_iteratorIPP8SLandlotEES9_S9_EENS_4pairIT2_T4_EESB_T3_SC_, symObjAddr: 0x14564, symBinAddr: 0x100017680, symSize: 0x7C }
  - { offsetInCU: 0xB233, offset: 0xB233, size: 0x8, addend: 0x0, symName: __ZNSt3__121__unwrap_and_dispatchB7v160006INS_10__overloadINS_11__move_loopINS_17_ClassicAlgPolicyEEENS_14__move_trivialEEENS_16reverse_iteratorIPP8SLandlotEESB_SB_Li0EEENS_4pairIT0_T2_EESD_T1_SE_, symObjAddr: 0x145E0, symBinAddr: 0x1000176FC, symSize: 0x12C }
  - { offsetInCU: 0xB2C3, offset: 0xB2C3, size: 0x8, addend: 0x0, symName: __ZNSt3__114__unwrap_rangeB7v160006INS_16reverse_iteratorIPP8SLandlotEES5_EENS_4pairIT0_S7_EET_S9_, symObjAddr: 0x1470C, symBinAddr: 0x100017828, symSize: 0x84 }
  - { offsetInCU: 0xB3BC, offset: 0xB3BC, size: 0x8, addend: 0x0, symName: __ZNSt3__113__unwrap_iterB7v160006INS_16reverse_iteratorIPP8SLandlotEENS_18__unwrap_iter_implIS5_Lb0EEELi0EEEDTclsrT0_8__unwrapclsr3stdE7declvalIT_EEEES9_, symObjAddr: 0x14830, symBinAddr: 0x10001794C, symSize: 0x44 }
  - { offsetInCU: 0xB400, offset: 0xB400, size: 0x8, addend: 0x0, symName: __ZNSt3__19make_pairB7v160006INS_16reverse_iteratorIPP8SLandlotEES5_EENS_4pairINS_18__unwrap_ref_decayIT_E4typeENS7_IT0_E4typeEEEOS8_OSB_, symObjAddr: 0x14874, symBinAddr: 0x100017990, symSize: 0x38 }
  - { offsetInCU: 0xB44F, offset: 0xB44F, size: 0x8, addend: 0x0, symName: __ZNSt3__114__rewrap_rangeB7v160006INS_16reverse_iteratorIPP8SLandlotEES5_EET_S6_T0_, symObjAddr: 0x148AC, symBinAddr: 0x1000179C8, symSize: 0x5C }
  - { offsetInCU: 0xB49B, offset: 0xB49B, size: 0x8, addend: 0x0, symName: __ZNSt3__113__rewrap_iterB7v160006INS_16reverse_iteratorIPP8SLandlotEES5_NS_18__unwrap_iter_implIS5_Lb0EEEEET_S8_T0_, symObjAddr: 0x14908, symBinAddr: 0x100017A24, symSize: 0x88 }
  - { offsetInCU: 0xB58F, offset: 0xB58F, size: 0x8, addend: 0x0, symName: __ZNSt3__118__lower_bound_implB7v160006INS_17_ClassicAlgPolicyENS_11__wrap_iterIPK5OwnerEES6_S3_NS_10__identityEPFbRS4_S8_EEET0_SB_T1_RKT2_RT4_RT3_, symObjAddr: 0x151E8, symBinAddr: 0x100018304, symSize: 0x108 }
  - { offsetInCU: 0xB661, offset: 0xB661, size: 0x8, addend: 0x0, symName: __ZNSt3__18__invokeB7v160006IRPFbRK5OwnerS3_EJS3_S3_EEEDTclclsr3stdE7declvalIT_EEspclsr3stdE7declvalIT0_EEEEOS7_DpOS8_, symObjAddr: 0x15358, symBinAddr: 0x100018474, symSize: 0x3C }
  - { offsetInCU: 0xB6C6, offset: 0xB6C6, size: 0x8, addend: 0x0, symName: __ZNSt3__18__invokeB7v160006IRNS_10__identityEJRK5OwnerEEEDTclclsr3stdE7declvalIT_EEspclsr3stdE7declvalIT0_EEEEOS6_DpOS7_, symObjAddr: 0x15394, symBinAddr: 0x1000184B0, symSize: 0x2C }
  - { offsetInCU: 0xB717, offset: 0xB717, size: 0x8, addend: 0x0, symName: __ZNSt3__18distanceB7v160006INS_11__wrap_iterIPK5OwnerEEEENS_15iterator_traitsIT_E15difference_typeES7_S7_, symObjAddr: 0x153E0, symBinAddr: 0x1000184FC, symSize: 0x3C }
  - { offsetInCU: 0xB75A, offset: 0xB75A, size: 0x8, addend: 0x0, symName: __ZNSt3__110__distanceB7v160006INS_11__wrap_iterIPK5OwnerEEEENS_15iterator_traitsIT_E15difference_typeES7_S7_NS_26random_access_iterator_tagE, symObjAddr: 0x1541C, symBinAddr: 0x100018538, symSize: 0x30 }
  - { offsetInCU: 0xB7A7, offset: 0xB7A7, size: 0x8, addend: 0x0, symName: __ZNSt3__1miB7v160006IPK5OwnerS3_EENS_11__wrap_iterIT_E15difference_typeERKS6_RKNS4_IT0_EE, symObjAddr: 0x1544C, symBinAddr: 0x100018568, symSize: 0x48 }
  - { offsetInCU: 0xB7F3, offset: 0xB7F3, size: 0x8, addend: 0x0, symName: __ZNSt3__19__advanceB7v160006INS_11__wrap_iterIPK5OwnerEEEEvRT_NS_15iterator_traitsIS6_E15difference_typeENS_26random_access_iterator_tagE, symObjAddr: 0x154E4, symBinAddr: 0x100018600, symSize: 0x2C }
  - { offsetInCU: 0xB83C, offset: 0xB83C, size: 0x8, addend: 0x0, symName: __ZNSt3__112__to_addressB7v160006IK5OwnerEEPT_S4_, symObjAddr: 0x15558, symBinAddr: 0x100018674, symSize: 0x14 }
  - { offsetInCU: 0xBBAF, offset: 0xBBAF, size: 0x8, addend: 0x0, symName: __ZSt28__throw_bad_array_new_lengthB7v160006v, symObjAddr: 0xCB94, symBinAddr: 0x10000FCB0, symSize: 0x34 }
  - { offsetInCU: 0xC315, offset: 0xC315, size: 0x8, addend: 0x0, symName: __ZNSt3__16vectorI5OwnerNS_9allocatorIS1_EEE26__swap_out_circular_bufferERNS_14__split_bufferIS1_RS3_EEPS1_, symObjAddr: 0x10484, symBinAddr: 0x1000135A0, symSize: 0x154 }
  - { offsetInCU: 0xC405, offset: 0xC405, size: 0x8, addend: 0x0, symName: __ZNSt3__16vectorIP8SLandlotNS_9allocatorIS2_EEE26__swap_out_circular_bufferERNS_14__split_bufferIS2_RS4_EEPS2_, symObjAddr: 0x13694, symBinAddr: 0x1000167B0, symSize: 0x154 }
  - { offsetInCU: 0xC464, offset: 0xC464, size: 0x8, addend: 0x0, symName: __ZNSt3__16vectorIP8SLandlotNS_9allocatorIS2_EEE26__swap_out_circular_bufferERNS_14__split_bufferIS2_RS4_EE, symObjAddr: 0x14D90, symBinAddr: 0x100017EAC, symSize: 0x118 }
  - { offsetInCU: 0xD187, offset: 0xD187, size: 0x8, addend: 0x0, symName: __Z7toloweri, symObjAddr: 0x640, symBinAddr: 0x10000375C, symSize: 0x24 }
  - { offsetInCU: 0xE5D5, offset: 0xE5D5, size: 0x8, addend: 0x0, symName: __ZN8SLandlotC2ERKNSt3__112basic_stringIcNS0_11char_traitsIcEENS0_9allocatorIcEEEES8_, symObjAddr: 0x0, symBinAddr: 0x10000311C, symSize: 0x124 }
  - { offsetInCU: 0xE61B, offset: 0xE61B, size: 0x8, addend: 0x0, symName: __ZNSt3__112basic_stringIcNS_11char_traitsIcEENS_9allocatorIcEEEC1B7v160006Ev, symObjAddr: 0x124, symBinAddr: 0x100003240, symSize: 0x2C }
  - { offsetInCU: 0xE649, offset: 0xE649, size: 0x8, addend: 0x0, symName: __ZNSt3__112basic_stringIcNS_11char_traitsIcEENS_9allocatorIcEEEC1B7v160006IDnEEPKc, symObjAddr: 0x150, symBinAddr: 0x10000326C, symSize: 0x34 }
  - { offsetInCU: 0xE686, offset: 0xE686, size: 0x8, addend: 0x0, symName: __ZN8SLandlotC1ERKNSt3__112basic_stringIcNS0_11char_traitsIcEENS0_9allocatorIcEEEES8_, symObjAddr: 0x190, symBinAddr: 0x1000032AC, symSize: 0x3C }
  - { offsetInCU: 0xE6CC, offset: 0xE6CC, size: 0x8, addend: 0x0, symName: __ZN8SLandlotC2ERKNSt3__112basic_stringIcNS0_11char_traitsIcEENS0_9allocatorIcEEEEj, symObjAddr: 0x1CC, symBinAddr: 0x1000032E8, symSize: 0x128 }
  - { offsetInCU: 0xE712, offset: 0xE712, size: 0x8, addend: 0x0, symName: __ZN8SLandlotC1ERKNSt3__112basic_stringIcNS0_11char_traitsIcEENS0_9allocatorIcEEEEj, symObjAddr: 0x2F4, symBinAddr: 0x100003410, symSize: 0x3C }
  - { offsetInCU: 0xE758, offset: 0xE758, size: 0x8, addend: 0x0, symName: __ZN8SLandlotC2ERKNSt3__112basic_stringIcNS0_11char_traitsIcEENS0_9allocatorIcEEEES8_S8_jS8_, symObjAddr: 0x330, symBinAddr: 0x10000344C, symSize: 0x1C4 }
  - { offsetInCU: 0xE7C8, offset: 0xE7C8, size: 0x8, addend: 0x0, symName: __ZNSt3__112basic_stringIcNS_11char_traitsIcEENS_9allocatorIcEEE5beginB7v160006Ev, symObjAddr: 0x58C, symBinAddr: 0x1000036A8, symSize: 0x60 }
  - { offsetInCU: 0xE7ED, offset: 0xE7ED, size: 0x8, addend: 0x0, symName: __ZNSt3__112basic_stringIcNS_11char_traitsIcEENS_9allocatorIcEEE3endB7v160006Ev, symObjAddr: 0x5EC, symBinAddr: 0x100003708, symSize: 0x54 }
  - { offsetInCU: 0xE812, offset: 0xE812, size: 0x8, addend: 0x0, symName: __ZN8SLandlotC1ERKNSt3__112basic_stringIcNS0_11char_traitsIcEENS0_9allocatorIcEEEES8_S8_jS8_, symObjAddr: 0x664, symBinAddr: 0x100003780, symSize: 0x54 }
  - { offsetInCU: 0xE882, offset: 0xE882, size: 0x8, addend: 0x0, symName: __ZN8SLandlot15changeOwnerNameERKNSt3__112basic_stringIcNS0_11char_traitsIcEENS0_9allocatorIcEEEE, symObjAddr: 0x6B8, symBinAddr: 0x1000037D4, symSize: 0x98 }
  - { offsetInCU: 0xE8B6, offset: 0xE8B6, size: 0x8, addend: 0x0, symName: __ZN8SLandlot11increaseSIDEv, symObjAddr: 0x750, symBinAddr: 0x10000386C, symSize: 0x30 }
  - { offsetInCU: 0xE8DC, offset: 0xE8DC, size: 0x8, addend: 0x0, symName: __ZN5OwnerC2ERKNSt3__112basic_stringIcNS0_11char_traitsIcEENS0_9allocatorIcEEEE, symObjAddr: 0x780, symBinAddr: 0x10000389C, symSize: 0xE8 }
  - { offsetInCU: 0xE914, offset: 0xE914, size: 0x8, addend: 0x0, symName: __ZNSt3__16vectorIP8SLandlotNS_9allocatorIS2_EEEC1B7v160006Ev, symObjAddr: 0x868, symBinAddr: 0x100003984, symSize: 0x2C }
  - { offsetInCU: 0xE93D, offset: 0xE93D, size: 0x8, addend: 0x0, symName: __ZNSt3__16vectorIP8SLandlotNS_9allocatorIS2_EEED1B7v160006Ev, symObjAddr: 0x894, symBinAddr: 0x1000039B0, symSize: 0x2C }
  - { offsetInCU: 0xE966, offset: 0xE966, size: 0x8, addend: 0x0, symName: __ZN5OwnerC1ERKNSt3__112basic_stringIcNS0_11char_traitsIcEENS0_9allocatorIcEEEE, symObjAddr: 0x8C0, symBinAddr: 0x1000039DC, symSize: 0x34 }
  - { offsetInCU: 0xE99E, offset: 0xE99E, size: 0x8, addend: 0x0, symName: __ZNK9CIterator5atEndEv, symObjAddr: 0x8F4, symBinAddr: 0x100003A10, symSize: 0x3C }
  - { offsetInCU: 0xE9C4, offset: 0xE9C4, size: 0x8, addend: 0x0, symName: __ZNKSt3__16vectorIP8SLandlotNS_9allocatorIS2_EEE4sizeB7v160006Ev, symObjAddr: 0x930, symBinAddr: 0x100003A4C, symSize: 0x28 }
  - { offsetInCU: 0xE9E9, offset: 0xE9E9, size: 0x8, addend: 0x0, symName: __ZN9CIterator4nextEv, symObjAddr: 0x958, symBinAddr: 0x100003A74, symSize: 0x20 }
  - { offsetInCU: 0xEA0F, offset: 0xEA0F, size: 0x8, addend: 0x0, symName: __ZNK9CIterator4cityEv, symObjAddr: 0x978, symBinAddr: 0x100003A94, symSize: 0x40 }
  - { offsetInCU: 0xEA34, offset: 0xEA34, size: 0x8, addend: 0x0, symName: __ZNKSt3__16vectorIP8SLandlotNS_9allocatorIS2_EEE2atEm, symObjAddr: 0x9B8, symBinAddr: 0x100003AD4, symSize: 0x60 }
  - { offsetInCU: 0xEA6A, offset: 0xEA6A, size: 0x8, addend: 0x0, symName: __ZNK9CIterator4addrEv, symObjAddr: 0xA18, symBinAddr: 0x100003B34, symSize: 0x44 }
  - { offsetInCU: 0xEA90, offset: 0xEA90, size: 0x8, addend: 0x0, symName: __ZNK9CIterator6regionEv, symObjAddr: 0xA5C, symBinAddr: 0x100003B78, symSize: 0x44 }
  - { offsetInCU: 0xEAB6, offset: 0xEAB6, size: 0x8, addend: 0x0, symName: __ZNK9CIterator2idEv, symObjAddr: 0xAA0, symBinAddr: 0x100003BBC, symSize: 0x30 }
  - { offsetInCU: 0xEADC, offset: 0xEADC, size: 0x8, addend: 0x0, symName: __ZNK9CIterator5ownerEv, symObjAddr: 0xAD0, symBinAddr: 0x100003BEC, symSize: 0x44 }
  - { offsetInCU: 0xEB01, offset: 0xEB01, size: 0x8, addend: 0x0, symName: __Z11compareCityPK8SLandlotS1_, symObjAddr: 0xB14, symBinAddr: 0x100003C30, symSize: 0x7C }
  - { offsetInCU: 0xEB3B, offset: 0xEB3B, size: 0x8, addend: 0x0, symName: __Z13compareRegionPK8SLandlotS1_, symObjAddr: 0xD10, symBinAddr: 0x100003E2C, symSize: 0x90 }
  - { offsetInCU: 0xEB75, offset: 0xEB75, size: 0x8, addend: 0x0, symName: __Z12compareOwnerRK5OwnerS1_, symObjAddr: 0xDA0, symBinAddr: 0x100003EBC, symSize: 0x30 }
  - { offsetInCU: 0xEBAF, offset: 0xEBAF, size: 0x8, addend: 0x0, symName: __Z10compareSIDPK8SLandlotS1_, symObjAddr: 0xDD0, symBinAddr: 0x100003EEC, symSize: 0x30 }
  - { offsetInCU: 0xEE0B, offset: 0xEE0B, size: 0x8, addend: 0x0, symName: __ZNK13CLandRegister10findByCityERKNSt3__112basic_stringIcNS0_11char_traitsIcEENS0_9allocatorIcEEEES8_, symObjAddr: 0xE00, symBinAddr: 0x100003F1C, symSize: 0x190 }
  - { offsetInCU: 0xEE69, offset: 0xEE69, size: 0x8, addend: 0x0, symName: __ZNKSt3__16vectorIP8SLandlotNS_9allocatorIS2_EEE5beginB7v160006Ev, symObjAddr: 0xFF0, symBinAddr: 0x10000410C, symSize: 0x30 }
  - { offsetInCU: 0xEE8F, offset: 0xEE8F, size: 0x8, addend: 0x0, symName: __ZNKSt3__16vectorIP8SLandlotNS_9allocatorIS2_EEE3endB7v160006Ev, symObjAddr: 0x1020, symBinAddr: 0x10000413C, symSize: 0x30 }
  - { offsetInCU: 0xEEB6, offset: 0xEEB6, size: 0x8, addend: 0x0, symName: __ZN8SLandlotD1Ev, symObjAddr: 0x1050, symBinAddr: 0x10000416C, symSize: 0x2C }
  - { offsetInCU: 0xEEE1, offset: 0xEEE1, size: 0x8, addend: 0x0, symName: __ZNKSt3__111__wrap_iterIPKP8SLandlotEdeB7v160006Ev, symObjAddr: 0x10B0, symBinAddr: 0x1000041CC, symSize: 0x18 }
  - { offsetInCU: 0xEF06, offset: 0xEF06, size: 0x8, addend: 0x0, symName: __ZNK13CLandRegister12findByRegionERKNSt3__112basic_stringIcNS0_11char_traitsIcEENS0_9allocatorIcEEEEj, symObjAddr: 0x10C8, symBinAddr: 0x1000041E4, symSize: 0x1A0 }
  - { offsetInCU: 0xEF65, offset: 0xEF65, size: 0x8, addend: 0x0, symName: __ZNK13CLandRegister11findByOwnerERKNSt3__112basic_stringIcNS0_11char_traitsIcEENS0_9allocatorIcEEEERKNS0_11__wrap_iterIPK5OwnerEE, symObjAddr: 0x1268, symBinAddr: 0x100004384, symSize: 0xD0 }
  - { offsetInCU: 0xEFB4, offset: 0xEFB4, size: 0x8, addend: 0x0, symName: __ZNKSt3__16vectorI5OwnerNS_9allocatorIS1_EEE3endB7v160006Ev, symObjAddr: 0x136C, symBinAddr: 0x100004488, symSize: 0x30 }
  - { offsetInCU: 0xEFDB, offset: 0xEFDB, size: 0x8, addend: 0x0, symName: __ZNKSt3__111__wrap_iterIPK5OwnerEdeB7v160006Ev, symObjAddr: 0x139C, symBinAddr: 0x1000044B8, symSize: 0x18 }
  - { offsetInCU: 0xF000, offset: 0xF000, size: 0x8, addend: 0x0, symName: __ZN5OwnerD1Ev, symObjAddr: 0x13B4, symBinAddr: 0x1000044D0, symSize: 0x2C }
  - { offsetInCU: 0xF02B, offset: 0xF02B, size: 0x8, addend: 0x0, symName: __ZN13CLandRegisterC2Ev, symObjAddr: 0x13E0, symBinAddr: 0x1000044FC, symSize: 0x9C }
  - { offsetInCU: 0xF055, offset: 0xF055, size: 0x8, addend: 0x0, symName: __ZNSt3__16vectorI5OwnerNS_9allocatorIS1_EEEC1B7v160006Ev, symObjAddr: 0x147C, symBinAddr: 0x100004598, symSize: 0x2C }
  - { offsetInCU: 0xF07E, offset: 0xF07E, size: 0x8, addend: 0x0, symName: __ZN13CLandRegisterC1Ev, symObjAddr: 0x14A8, symBinAddr: 0x1000045C4, symSize: 0x2C }
  - { offsetInCU: 0xF0A8, offset: 0xF0A8, size: 0x8, addend: 0x0, symName: __ZN13CLandRegisterD2Ev, symObjAddr: 0x14D4, symBinAddr: 0x1000045F0, symSize: 0x154 }
  - { offsetInCU: 0xF11B, offset: 0xF11B, size: 0x8, addend: 0x0, symName: __ZNSt3__16vectorIP8SLandlotNS_9allocatorIS2_EEE5beginB7v160006Ev, symObjAddr: 0x1628, symBinAddr: 0x100004744, symSize: 0x30 }
  - { offsetInCU: 0xF141, offset: 0xF141, size: 0x8, addend: 0x0, symName: __ZNSt3__16vectorIP8SLandlotNS_9allocatorIS2_EEE3endB7v160006Ev, symObjAddr: 0x1658, symBinAddr: 0x100004774, symSize: 0x30 }
  - { offsetInCU: 0xF168, offset: 0xF168, size: 0x8, addend: 0x0, symName: __ZNKSt3__111__wrap_iterIPP8SLandlotEdeB7v160006Ev, symObjAddr: 0x16BC, symBinAddr: 0x1000047D8, symSize: 0x18 }
  - { offsetInCU: 0xF18D, offset: 0xF18D, size: 0x8, addend: 0x0, symName: __ZNSt3__111__wrap_iterIPP8SLandlotEppB7v160006Ev, symObjAddr: 0x16D4, symBinAddr: 0x1000047F0, symSize: 0x20 }
  - { offsetInCU: 0xF1B2, offset: 0xF1B2, size: 0x8, addend: 0x0, symName: __ZNSt3__16vectorI5OwnerNS_9allocatorIS1_EEED1B7v160006Ev, symObjAddr: 0x16F4, symBinAddr: 0x100004810, symSize: 0x2C }
  - { offsetInCU: 0xF1DB, offset: 0xF1DB, size: 0x8, addend: 0x0, symName: __ZN13CLandRegisterD1Ev, symObjAddr: 0x1720, symBinAddr: 0x10000483C, symSize: 0x2C }
  - { offsetInCU: 0xF205, offset: 0xF205, size: 0x8, addend: 0x0, symName: __ZN13CLandRegister3addERKNSt3__112basic_stringIcNS0_11char_traitsIcEENS0_9allocatorIcEEEES8_S8_j, symObjAddr: 0x174C, symBinAddr: 0x100004868, symSize: 0x46C }
  - { offsetInCU: 0xF2AD, offset: 0xF2AD, size: 0x8, addend: 0x0, symName: __ZNSt3__16vectorI5OwnerNS_9allocatorIS1_EEE5beginB7v160006Ev, symObjAddr: 0x1C78, symBinAddr: 0x100004D94, symSize: 0x30 }
  - { offsetInCU: 0xF2D3, offset: 0xF2D3, size: 0x8, addend: 0x0, symName: __ZNSt3__16vectorI5OwnerNS_9allocatorIS1_EEE3endB7v160006Ev, symObjAddr: 0x1CA8, symBinAddr: 0x100004DC4, symSize: 0x30 }
  - { offsetInCU: 0xF304, offset: 0xF304, size: 0x8, addend: 0x0, symName: __ZNSt3__111__wrap_iterIPK5OwnerEC1B7v160006IPS1_EERKNS0_IT_EEPNS_9enable_ifIXsr14is_convertibleIS7_S3_EE5valueEvE4typeE, symObjAddr: 0x1CD8, symBinAddr: 0x100004DF4, symSize: 0x3C }
  - { offsetInCU: 0xF34D, offset: 0xF34D, size: 0x8, addend: 0x0, symName: __ZNSt3__16vectorI5OwnerNS_9allocatorIS1_EEE6insertENS_11__wrap_iterIPKS1_EEOS1_, symObjAddr: 0x1D14, symBinAddr: 0x100004E30, symSize: 0x1B8 }
  - { offsetInCU: 0xF3C6, offset: 0xF3C6, size: 0x8, addend: 0x0, symName: __ZNSt3__16vectorIP8SLandlotNS_9allocatorIS2_EEE6insertENS_11__wrap_iterIPKS2_EERS7_, symObjAddr: 0x1ECC, symBinAddr: 0x100004FE8, symSize: 0x20C }
  - { offsetInCU: 0xF462, offset: 0xF462, size: 0x8, addend: 0x0, symName: __ZNSt3__111__wrap_iterIPKP8SLandlotEC1B7v160006IPS2_EERKNS0_IT_EEPNS_9enable_ifIXsr14is_convertibleIS8_S4_EE5valueEvE4typeE, symObjAddr: 0x20D8, symBinAddr: 0x1000051F4, symSize: 0x3C }
  - { offsetInCU: 0xF4AC, offset: 0xF4AC, size: 0x8, addend: 0x0, symName: __ZNKSt3__111__wrap_iterIP5OwnerEptB7v160006Ev, symObjAddr: 0x2114, symBinAddr: 0x100005230, symSize: 0x28 }
  - { offsetInCU: 0xF4D0, offset: 0xF4D0, size: 0x8, addend: 0x0, symName: __ZNSt3__16vectorIP8SLandlotNS_9allocatorIS2_EEE9push_backB7v160006ERKS2_, symObjAddr: 0x213C, symBinAddr: 0x100005258, symSize: 0x6C }
  - { offsetInCU: 0xF505, offset: 0xF505, size: 0x8, addend: 0x0, symName: __ZN13CLandRegister3delERKNSt3__112basic_stringIcNS0_11char_traitsIcEENS0_9allocatorIcEEEES8_, symObjAddr: 0x21A8, symBinAddr: 0x1000052C4, symSize: 0x3CC }
  - { offsetInCU: 0xF5A8, offset: 0xF5A8, size: 0x8, addend: 0x0, symName: __ZNSt3__16vectorIP8SLandlotNS_9allocatorIS2_EEE5eraseB7v160006ENS_11__wrap_iterIPKS2_EE, symObjAddr: 0x2574, symBinAddr: 0x100005690, symSize: 0xB4 }
  - { offsetInCU: 0xF5FB, offset: 0xF5FB, size: 0x8, addend: 0x0, symName: __ZN13CLandRegister3delERKNSt3__112basic_stringIcNS0_11char_traitsIcEENS0_9allocatorIcEEEEj, symObjAddr: 0x2628, symBinAddr: 0x100005744, symSize: 0x3C8 }
  - { offsetInCU: 0xF69E, offset: 0xF69E, size: 0x8, addend: 0x0, symName: __ZNK13CLandRegister8getOwnerERKNSt3__112basic_stringIcNS0_11char_traitsIcEENS0_9allocatorIcEEEES8_RS6_, symObjAddr: 0x29F0, symBinAddr: 0x100005B0C, symSize: 0x164 }
  - { offsetInCU: 0xF70F, offset: 0xF70F, size: 0x8, addend: 0x0, symName: __ZNK13CLandRegister8getOwnerERKNSt3__112basic_stringIcNS0_11char_traitsIcEENS0_9allocatorIcEEEEjRS6_, symObjAddr: 0x2B54, symBinAddr: 0x100005C70, symSize: 0x168 }
  - { offsetInCU: 0xF780, offset: 0xF780, size: 0x8, addend: 0x0, symName: __ZN13CLandRegister8newOwnerERKNSt3__112basic_stringIcNS0_11char_traitsIcEENS0_9allocatorIcEEEES8_S8_, symObjAddr: 0x2CBC, symBinAddr: 0x100005DD8, symSize: 0x4A0 }
  - { offsetInCU: 0xF842, offset: 0xF842, size: 0x8, addend: 0x0, symName: __ZNSt3__16vectorI5OwnerNS_9allocatorIS1_EEE6insertENS_11__wrap_iterIPKS1_EERS6_, symObjAddr: 0x315C, symBinAddr: 0x100006278, symSize: 0x210 }
  - { offsetInCU: 0xF8D8, offset: 0xF8D8, size: 0x8, addend: 0x0, symName: __ZN13CLandRegister8newOwnerERKNSt3__112basic_stringIcNS0_11char_traitsIcEENS0_9allocatorIcEEEEjS8_, symObjAddr: 0x336C, symBinAddr: 0x100006488, symSize: 0x4A4 }
  - { offsetInCU: 0xF99A, offset: 0xF99A, size: 0x8, addend: 0x0, symName: __ZNK13CLandRegister5countERKNSt3__112basic_stringIcNS0_11char_traitsIcEENS0_9allocatorIcEEEE, symObjAddr: 0x3810, symBinAddr: 0x10000692C, symSize: 0x108 }
  - { offsetInCU: 0xF9EF, offset: 0xF9EF, size: 0x8, addend: 0x0, symName: __ZNKSt3__16vectorI5OwnerNS_9allocatorIS1_EEE5beginB7v160006Ev, symObjAddr: 0x3978, symBinAddr: 0x100006A94, symSize: 0x30 }
  - { offsetInCU: 0xFA16, offset: 0xFA16, size: 0x8, addend: 0x0, symName: __ZNKSt3__111__wrap_iterIPK5OwnerEptB7v160006Ev, symObjAddr: 0x39A8, symBinAddr: 0x100006AC4, symSize: 0x28 }
  - { offsetInCU: 0xFA3A, offset: 0xFA3A, size: 0x8, addend: 0x0, symName: __ZNK13CLandRegister10listByAddrEv, symObjAddr: 0x39D0, symBinAddr: 0x100006AEC, symSize: 0x78 }
  - { offsetInCU: 0xFA61, offset: 0xFA61, size: 0x8, addend: 0x0, symName: __ZNSt3__16vectorIP8SLandlotNS_9allocatorIS2_EEEC1ERKS5_, symObjAddr: 0x3A48, symBinAddr: 0x100006B64, symSize: 0x34 }
  - { offsetInCU: 0xFA9B, offset: 0xFA9B, size: 0x8, addend: 0x0, symName: __ZN9CIteratorC1ENSt3__16vectorIP8SLandlotNS0_9allocatorIS3_EEEEj, symObjAddr: 0x3A7C, symBinAddr: 0x100006B98, symSize: 0x3C }
  - { offsetInCU: 0xFAE0, offset: 0xFAE0, size: 0x8, addend: 0x0, symName: __ZNK13CLandRegister11listByOwnerERKNSt3__112basic_stringIcNS0_11char_traitsIcEENS0_9allocatorIcEEEE, symObjAddr: 0x3AB8, symBinAddr: 0x100006BD4, symSize: 0x1A4 }
  - { offsetInCU: 0xFB36, offset: 0xFB36, size: 0x8, addend: 0x0, symName: _main, symObjAddr: 0x3C5C, symBinAddr: 0x100006D78, symSize: 0x30 }
  - { offsetInCU: 0xFB51, offset: 0xFB51, size: 0x8, addend: 0x0, symName: __ZL5test0v, symObjAddr: 0x3C8C, symBinAddr: 0x100006DA8, symSize: 0x6768 }
  - { offsetInCU: 0xFBFD, offset: 0xFBFD, size: 0x8, addend: 0x0, symName: __ZL5test1v, symObjAddr: 0xA3F4, symBinAddr: 0x10000D510, symSize: 0x1DD4 }
  - { offsetInCU: 0xFC59, offset: 0xFC59, size: 0x8, addend: 0x0, symName: __ZN8SLandlotD2Ev, symObjAddr: 0xC1C8, symBinAddr: 0x10000F2E4, symSize: 0x100 }
  - { offsetInCU: 0xFC84, offset: 0xFC84, size: 0x8, addend: 0x0, symName: __ZN5OwnerD2Ev, symObjAddr: 0xC2C8, symBinAddr: 0x10000F3E4, symSize: 0x68 }
  - { offsetInCU: 0xFCAF, offset: 0xFCAF, size: 0x8, addend: 0x0, symName: __ZN9CIteratorC2ENSt3__16vectorIP8SLandlotNS0_9allocatorIS3_EEEEj, symObjAddr: 0xC330, symBinAddr: 0x10000F44C, symSize: 0x40 }
  - { offsetInCU: 0xFCF5, offset: 0xFCF5, size: 0x8, addend: 0x0, symName: __ZN9CIteratorD1Ev, symObjAddr: 0xC430, symBinAddr: 0x10000F54C, symSize: 0x2C }
  - { offsetInCU: 0xFD20, offset: 0xFD20, size: 0x8, addend: 0x0, symName: __ZNSt3__111char_traitsIcE6lengthEPKc, symObjAddr: 0xC45C, symBinAddr: 0x10000F578, symSize: 0x48 }
  - { offsetInCU: 0xFD43, offset: 0xFD43, size: 0x8, addend: 0x0, symName: __ZNKSt3__112basic_stringIcNS_11char_traitsIcEENS_9allocatorIcEEE4sizeB7v160006Ev, symObjAddr: 0xC4A4, symBinAddr: 0x10000F5C0, symSize: 0x54 }
  - { offsetInCU: 0xFD68, offset: 0xFD68, size: 0x8, addend: 0x0, symName: __ZNKSt3__112basic_stringIcNS_11char_traitsIcEENS_9allocatorIcEEE9__is_longB7v160006Ev, symObjAddr: 0xC51C, symBinAddr: 0x10000F638, symSize: 0x74 }
  - { offsetInCU: 0xFD8D, offset: 0xFD8D, size: 0x8, addend: 0x0, symName: __ZNKSt3__112basic_stringIcNS_11char_traitsIcEENS_9allocatorIcEEE15__get_long_sizeB7v160006Ev, symObjAddr: 0xC590, symBinAddr: 0x10000F6AC, symSize: 0x28 }
  - { offsetInCU: 0xFDB2, offset: 0xFDB2, size: 0x8, addend: 0x0, symName: __ZNKSt3__112basic_stringIcNS_11char_traitsIcEENS_9allocatorIcEEE16__get_short_sizeB7v160006Ev, symObjAddr: 0xC5B8, symBinAddr: 0x10000F6D4, symSize: 0x34 }
  - { offsetInCU: 0xFDD7, offset: 0xFDD7, size: 0x8, addend: 0x0, symName: __ZNKSt3__117__compressed_pairINS_12basic_stringIcNS_11char_traitsIcEENS_9allocatorIcEEE5__repES5_E5firstB7v160006Ev, symObjAddr: 0xC5F8, symBinAddr: 0x10000F714, symSize: 0x24 }
  - { offsetInCU: 0xFDFC, offset: 0xFDFC, size: 0x8, addend: 0x0, symName: __ZNKSt3__122__compressed_pair_elemINS_12basic_stringIcNS_11char_traitsIcEENS_9allocatorIcEEE5__repELi0ELb0EE5__getB7v160006Ev, symObjAddr: 0xC61C, symBinAddr: 0x10000F738, symSize: 0x14 }
  - { offsetInCU: 0xFE21, offset: 0xFE21, size: 0x8, addend: 0x0, symName: __ZN9CIteratorD2Ev, symObjAddr: 0xC630, symBinAddr: 0x10000F74C, symSize: 0x2C }
  - { offsetInCU: 0xFE4C, offset: 0xFE4C, size: 0x8, addend: 0x0, symName: __ZNSt3__112basic_stringIcNS_11char_traitsIcEENS_9allocatorIcEEEC2B7v160006IDnEEPKc, symObjAddr: 0xC65C, symBinAddr: 0x10000F778, symSize: 0x60 }
  - { offsetInCU: 0xFE8E, offset: 0xFE8E, size: 0x8, addend: 0x0, symName: __ZNSt3__117__compressed_pairINS_12basic_stringIcNS_11char_traitsIcEENS_9allocatorIcEEE5__repES5_EC1B7v160006INS_18__default_init_tagESA_EEOT_OT0_, symObjAddr: 0xC6BC, symBinAddr: 0x10000F7D8, symSize: 0x3C }
  - { offsetInCU: 0xFEE5, offset: 0xFEE5, size: 0x8, addend: 0x0, symName: __ZNSt3__117__compressed_pairINS_12basic_stringIcNS_11char_traitsIcEENS_9allocatorIcEEE5__repES5_EC2B7v160006INS_18__default_init_tagESA_EEOT_OT0_, symObjAddr: 0xC708, symBinAddr: 0x10000F824, symSize: 0x3C }
  - { offsetInCU: 0xFF3C, offset: 0xFF3C, size: 0x8, addend: 0x0, symName: __ZNSt3__122__compressed_pair_elemINS_12basic_stringIcNS_11char_traitsIcEENS_9allocatorIcEEE5__repELi0ELb0EEC2B7v160006ENS_18__default_init_tagE, symObjAddr: 0xC744, symBinAddr: 0x10000F860, symSize: 0x14 }
  - { offsetInCU: 0xFF6F, offset: 0xFF6F, size: 0x8, addend: 0x0, symName: __ZNSt3__122__compressed_pair_elemINS_9allocatorIcEELi1ELb1EEC2B7v160006ENS_18__default_init_tagE, symObjAddr: 0xC758, symBinAddr: 0x10000F874, symSize: 0x2C }
  - { offsetInCU: 0xFFA2, offset: 0xFFA2, size: 0x8, addend: 0x0, symName: __ZNSt3__19allocatorIcEC2B7v160006Ev, symObjAddr: 0xC784, symBinAddr: 0x10000F8A0, symSize: 0x2C }
  - { offsetInCU: 0xFFCB, offset: 0xFFCB, size: 0x8, addend: 0x0, symName: __ZNSt3__116__non_trivial_ifILb1ENS_9allocatorIcEEEC2B7v160006Ev, symObjAddr: 0xC7B0, symBinAddr: 0x10000F8CC, symSize: 0x14 }
  - { offsetInCU: 0xFFF4, offset: 0xFFF4, size: 0x8, addend: 0x0, symName: __ZNSt3__112basic_stringIcNS_11char_traitsIcEENS_9allocatorIcEEEC2B7v160006Ev, symObjAddr: 0xC7C4, symBinAddr: 0x10000F8E0, symSize: 0x44 }
  - { offsetInCU: 0x1001D, offset: 0x1001D, size: 0x8, addend: 0x0, symName: __ZNSt3__112basic_stringIcNS_11char_traitsIcEENS_9allocatorIcEEE14__default_initB7v160006Ev, symObjAddr: 0xC808, symBinAddr: 0x10000F924, symSize: 0xB0 }
  - { offsetInCU: 0x1006E, offset: 0x1006E, size: 0x8, addend: 0x0, symName: __ZNSt3__117__compressed_pairINS_12basic_stringIcNS_11char_traitsIcEENS_9allocatorIcEEE5__repES5_E5firstB7v160006Ev, symObjAddr: 0xC8B8, symBinAddr: 0x10000F9D4, symSize: 0x24 }
  - { offsetInCU: 0x10093, offset: 0x10093, size: 0x8, addend: 0x0, symName: __ZNSt3__112basic_stringIcNS_11char_traitsIcEENS_9allocatorIcEEE11__recommendB7v160006Em, symObjAddr: 0xC8DC, symBinAddr: 0x10000F9F8, symSize: 0x9C }
  - { offsetInCU: 0x100C6, offset: 0x100C6, size: 0x8, addend: 0x0, symName: __ZNSt3__116allocator_traitsINS_9allocatorIcEEE8allocateB7v160006ERS2_m, symObjAddr: 0xC978, symBinAddr: 0x10000FA94, symSize: 0x2C }
  - { offsetInCU: 0x100F9, offset: 0x100F9, size: 0x8, addend: 0x0, symName: __ZNSt3__112basic_stringIcNS_11char_traitsIcEENS_9allocatorIcEEE7__allocB7v160006Ev, symObjAddr: 0xC9A4, symBinAddr: 0x10000FAC0, symSize: 0x24 }
  - { offsetInCU: 0x1011E, offset: 0x1011E, size: 0x8, addend: 0x0, symName: __ZNSt3__112basic_stringIcNS_11char_traitsIcEENS_9allocatorIcEEE16__begin_lifetimeB7v160006EPcm, symObjAddr: 0xC9C8, symBinAddr: 0x10000FAE4, symSize: 0x14 }
  - { offsetInCU: 0x10151, offset: 0x10151, size: 0x8, addend: 0x0, symName: __ZNSt3__112basic_stringIcNS_11char_traitsIcEENS_9allocatorIcEEE18__set_long_pointerB7v160006EPc, symObjAddr: 0xC9DC, symBinAddr: 0x10000FAF8, symSize: 0x38 }
  - { offsetInCU: 0x10185, offset: 0x10185, size: 0x8, addend: 0x0, symName: __ZNSt3__112basic_stringIcNS_11char_traitsIcEENS_9allocatorIcEEE14__set_long_capB7v160006Em, symObjAddr: 0xCA14, symBinAddr: 0x10000FB30, symSize: 0x70 }
  - { offsetInCU: 0x101B9, offset: 0x101B9, size: 0x8, addend: 0x0, symName: __ZNSt3__112basic_stringIcNS_11char_traitsIcEENS_9allocatorIcEEE15__set_long_sizeB7v160006Em, symObjAddr: 0xCA84, symBinAddr: 0x10000FBA0, symSize: 0x38 }
  - { offsetInCU: 0x101ED, offset: 0x101ED, size: 0x8, addend: 0x0, symName: __ZNSt3__122__compressed_pair_elemINS_12basic_stringIcNS_11char_traitsIcEENS_9allocatorIcEEE5__repELi0ELb0EE5__getB7v160006Ev, symObjAddr: 0xCABC, symBinAddr: 0x10000FBD8, symSize: 0x14 }
  - { offsetInCU: 0x10212, offset: 0x10212, size: 0x8, addend: 0x0, symName: __ZNSt3__112basic_stringIcNS_11char_traitsIcEENS_9allocatorIcEEE10__align_itB7v160006ILm16EEEmm, symObjAddr: 0xCAD0, symBinAddr: 0x10000FBEC, symSize: 0x1C }
  - { offsetInCU: 0x10240, offset: 0x10240, size: 0x8, addend: 0x0, symName: __ZNSt3__19allocatorIcE8allocateB7v160006Em, symObjAddr: 0xCAEC, symBinAddr: 0x10000FC08, symSize: 0x84 }
  - { offsetInCU: 0x1027D, offset: 0x1027D, size: 0x8, addend: 0x0, symName: __ZNSt3__116allocator_traitsINS_9allocatorIcEEE8max_sizeB7v160006IS2_vEEmRKS2_, symObjAddr: 0xCB70, symBinAddr: 0x10000FC8C, symSize: 0x24 }
  - { offsetInCU: 0x102AB, offset: 0x102AB, size: 0x8, addend: 0x0, symName: __ZNKSt3__19allocatorIcE8max_sizeB7v160006Ev, symObjAddr: 0xCBF0, symBinAddr: 0x10000FD0C, symSize: 0x14 }
  - { offsetInCU: 0x102D0, offset: 0x102D0, size: 0x8, addend: 0x0, symName: __ZNSt3__117__compressed_pairINS_12basic_stringIcNS_11char_traitsIcEENS_9allocatorIcEEE5__repES5_E6secondB7v160006Ev, symObjAddr: 0xCC28, symBinAddr: 0x10000FD44, symSize: 0x24 }
  - { offsetInCU: 0x102F5, offset: 0x102F5, size: 0x8, addend: 0x0, symName: __ZNSt3__122__compressed_pair_elemINS_9allocatorIcEELi1ELb1EE5__getB7v160006Ev, symObjAddr: 0xCC4C, symBinAddr: 0x10000FD68, symSize: 0x14 }
  - { offsetInCU: 0x1031A, offset: 0x1031A, size: 0x8, addend: 0x0, symName: __ZNSt3__112basic_stringIcNS_11char_traitsIcEENS_9allocatorIcEEE15__make_iteratorB7v160006EPc, symObjAddr: 0xCC60, symBinAddr: 0x10000FD7C, symSize: 0x34 }
  - { offsetInCU: 0x1034E, offset: 0x1034E, size: 0x8, addend: 0x0, symName: __ZNSt3__112basic_stringIcNS_11char_traitsIcEENS_9allocatorIcEEE13__get_pointerB7v160006Ev, symObjAddr: 0xCC94, symBinAddr: 0x10000FDB0, symSize: 0x54 }
  - { offsetInCU: 0x10373, offset: 0x10373, size: 0x8, addend: 0x0, symName: __ZNSt3__111__wrap_iterIPcEC1B7v160006EPKvS1_, symObjAddr: 0xCCE8, symBinAddr: 0x10000FE04, symSize: 0x3C }
  - { offsetInCU: 0x103B8, offset: 0x103B8, size: 0x8, addend: 0x0, symName: __ZNSt3__111__wrap_iterIPcEC2B7v160006EPKvS1_, symObjAddr: 0xCD24, symBinAddr: 0x10000FE40, symSize: 0x24 }
  - { offsetInCU: 0x103FD, offset: 0x103FD, size: 0x8, addend: 0x0, symName: __ZNSt3__112basic_stringIcNS_11char_traitsIcEENS_9allocatorIcEEE18__get_long_pointerB7v160006Ev, symObjAddr: 0xCD48, symBinAddr: 0x10000FE64, symSize: 0x28 }
  - { offsetInCU: 0x10422, offset: 0x10422, size: 0x8, addend: 0x0, symName: __ZNSt3__112basic_stringIcNS_11char_traitsIcEENS_9allocatorIcEEE19__get_short_pointerB7v160006Ev, symObjAddr: 0xCD70, symBinAddr: 0x10000FE8C, symSize: 0x28 }
  - { offsetInCU: 0x10447, offset: 0x10447, size: 0x8, addend: 0x0, symName: __ZNSt3__114pointer_traitsIPcE10pointer_toB7v160006ERc, symObjAddr: 0xCD98, symBinAddr: 0x10000FEB4, symSize: 0x14 }
  - { offsetInCU: 0x1046A, offset: 0x1046A, size: 0x8, addend: 0x0, symName: __ZNKSt3__111__wrap_iterIPcEdeB7v160006Ev, symObjAddr: 0xCDE0, symBinAddr: 0x10000FEFC, symSize: 0x18 }
  - { offsetInCU: 0x1048F, offset: 0x1048F, size: 0x8, addend: 0x0, symName: __ZNSt3__111__wrap_iterIPcEppB7v160006Ev, symObjAddr: 0xCDF8, symBinAddr: 0x10000FF14, symSize: 0x20 }
  - { offsetInCU: 0x104B4, offset: 0x104B4, size: 0x8, addend: 0x0, symName: __ZNKSt3__111__wrap_iterIPcE4baseB7v160006Ev, symObjAddr: 0xCE60, symBinAddr: 0x10000FF7C, symSize: 0x18 }
  - { offsetInCU: 0x104D9, offset: 0x104D9, size: 0x8, addend: 0x0, symName: __ZNSt3__16vectorIP8SLandlotNS_9allocatorIS2_EEEC2B7v160006Ev, symObjAddr: 0xCE78, symBinAddr: 0x10000FF94, symSize: 0x4C }
  - { offsetInCU: 0x10507, offset: 0x10507, size: 0x8, addend: 0x0, symName: __ZNSt3__117__compressed_pairIPP8SLandlotNS_9allocatorIS2_EEEC1B7v160006IDnNS_18__default_init_tagEEEOT_OT0_, symObjAddr: 0xCEC4, symBinAddr: 0x10000FFE0, symSize: 0x3C }
  - { offsetInCU: 0x1055E, offset: 0x1055E, size: 0x8, addend: 0x0, symName: __ZNSt3__117__compressed_pairIPP8SLandlotNS_9allocatorIS2_EEEC2B7v160006IDnNS_18__default_init_tagEEEOT_OT0_, symObjAddr: 0xCF10, symBinAddr: 0x10001002C, symSize: 0x40 }
  - { offsetInCU: 0x105B5, offset: 0x105B5, size: 0x8, addend: 0x0, symName: __ZNSt3__122__compressed_pair_elemIPP8SLandlotLi0ELb0EEC2B7v160006IDnvEEOT_, symObjAddr: 0xCF50, symBinAddr: 0x10001006C, symSize: 0x1C }
  - { offsetInCU: 0x105F6, offset: 0x105F6, size: 0x8, addend: 0x0, symName: __ZNSt3__122__compressed_pair_elemINS_9allocatorIP8SLandlotEELi1ELb1EEC2B7v160006ENS_18__default_init_tagE, symObjAddr: 0xCF6C, symBinAddr: 0x100010088, symSize: 0x2C }
  - { offsetInCU: 0x10629, offset: 0x10629, size: 0x8, addend: 0x0, symName: __ZNSt3__19allocatorIP8SLandlotEC2B7v160006Ev, symObjAddr: 0xCF98, symBinAddr: 0x1000100B4, symSize: 0x2C }
  - { offsetInCU: 0x10652, offset: 0x10652, size: 0x8, addend: 0x0, symName: __ZNSt3__116__non_trivial_ifILb1ENS_9allocatorIP8SLandlotEEEC2B7v160006Ev, symObjAddr: 0xCFC4, symBinAddr: 0x1000100E0, symSize: 0x14 }
  - { offsetInCU: 0x1067B, offset: 0x1067B, size: 0x8, addend: 0x0, symName: __ZNSt3__16vectorIP8SLandlotNS_9allocatorIS2_EEED2B7v160006Ev, symObjAddr: 0xCFD8, symBinAddr: 0x1000100F4, symSize: 0x3C }
  - { offsetInCU: 0x106A4, offset: 0x106A4, size: 0x8, addend: 0x0, symName: __ZNSt3__16vectorIP8SLandlotNS_9allocatorIS2_EEE16__destroy_vectorC1ERS5_, symObjAddr: 0xD014, symBinAddr: 0x100010130, symSize: 0x34 }
  - { offsetInCU: 0x106DC, offset: 0x106DC, size: 0x8, addend: 0x0, symName: __ZNSt3__16vectorIP8SLandlotNS_9allocatorIS2_EEE16__destroy_vectorclB7v160006Ev, symObjAddr: 0xD048, symBinAddr: 0x100010164, symSize: 0x9C }
  - { offsetInCU: 0x10701, offset: 0x10701, size: 0x8, addend: 0x0, symName: __ZNSt3__16vectorIP8SLandlotNS_9allocatorIS2_EEE16__destroy_vectorC2ERS5_, symObjAddr: 0xD0E4, symBinAddr: 0x100010200, symSize: 0x20 }
  - { offsetInCU: 0x10739, offset: 0x10739, size: 0x8, addend: 0x0, symName: __ZNKSt3__16vectorIP8SLandlotNS_9allocatorIS2_EEE17__annotate_deleteB7v160006Ev, symObjAddr: 0xD104, symBinAddr: 0x100010220, symSize: 0xB8 }
  - { offsetInCU: 0x1075E, offset: 0x1075E, size: 0x8, addend: 0x0, symName: __ZNSt3__16vectorIP8SLandlotNS_9allocatorIS2_EEE7__clearB7v160006Ev, symObjAddr: 0xD1CC, symBinAddr: 0x1000102E8, symSize: 0x28 }
  - { offsetInCU: 0x10783, offset: 0x10783, size: 0x8, addend: 0x0, symName: __ZNSt3__116allocator_traitsINS_9allocatorIP8SLandlotEEE10deallocateB7v160006ERS4_PS3_m, symObjAddr: 0xD1F4, symBinAddr: 0x100010310, symSize: 0x34 }
  - { offsetInCU: 0x107C5, offset: 0x107C5, size: 0x8, addend: 0x0, symName: __ZNSt3__16vectorIP8SLandlotNS_9allocatorIS2_EEE7__allocB7v160006Ev, symObjAddr: 0xD228, symBinAddr: 0x100010344, symSize: 0x28 }
  - { offsetInCU: 0x107EA, offset: 0x107EA, size: 0x8, addend: 0x0, symName: __ZNKSt3__16vectorIP8SLandlotNS_9allocatorIS2_EEE8capacityB7v160006Ev, symObjAddr: 0xD250, symBinAddr: 0x10001036C, symSize: 0x40 }
  - { offsetInCU: 0x1080F, offset: 0x1080F, size: 0x8, addend: 0x0, symName: __ZNKSt3__16vectorIP8SLandlotNS_9allocatorIS2_EEE31__annotate_contiguous_containerB7v160006EPKvS7_S7_S7_, symObjAddr: 0xD290, symBinAddr: 0x1000103AC, symSize: 0x20 }
  - { offsetInCU: 0x10860, offset: 0x10860, size: 0x8, addend: 0x0, symName: __ZNKSt3__16vectorIP8SLandlotNS_9allocatorIS2_EEE4dataB7v160006Ev, symObjAddr: 0xD2B0, symBinAddr: 0x1000103CC, symSize: 0x28 }
  - { offsetInCU: 0x10885, offset: 0x10885, size: 0x8, addend: 0x0, symName: __ZNSt3__16vectorIP8SLandlotNS_9allocatorIS2_EEE22__base_destruct_at_endB7v160006EPS2_, symObjAddr: 0xD2EC, symBinAddr: 0x100010408, symSize: 0xA0 }
  - { offsetInCU: 0x108C8, offset: 0x108C8, size: 0x8, addend: 0x0, symName: __ZNSt3__116allocator_traitsINS_9allocatorIP8SLandlotEEE7destroyB7v160006IS3_vEEvRS4_PT_, symObjAddr: 0xD38C, symBinAddr: 0x1000104A8, symSize: 0x2C }
  - { offsetInCU: 0x10905, offset: 0x10905, size: 0x8, addend: 0x0, symName: __ZNSt3__19allocatorIP8SLandlotE7destroyB7v160006EPS2_, symObjAddr: 0xD3B8, symBinAddr: 0x1000104D4, symSize: 0x14 }
  - { offsetInCU: 0x10938, offset: 0x10938, size: 0x8, addend: 0x0, symName: __ZNSt3__19allocatorIP8SLandlotE10deallocateB7v160006EPS2_m, symObjAddr: 0xD3CC, symBinAddr: 0x1000104E8, symSize: 0x70 }
  - { offsetInCU: 0x10979, offset: 0x10979, size: 0x8, addend: 0x0, symName: __ZNSt3__117__compressed_pairIPP8SLandlotNS_9allocatorIS2_EEE6secondB7v160006Ev, symObjAddr: 0xD4B8, symBinAddr: 0x1000105D4, symSize: 0x24 }
  - { offsetInCU: 0x1099E, offset: 0x1099E, size: 0x8, addend: 0x0, symName: __ZNSt3__122__compressed_pair_elemINS_9allocatorIP8SLandlotEELi1ELb1EE5__getB7v160006Ev, symObjAddr: 0xD4DC, symBinAddr: 0x1000105F8, symSize: 0x14 }
  - { offsetInCU: 0x109C3, offset: 0x109C3, size: 0x8, addend: 0x0, symName: __ZNKSt3__16vectorIP8SLandlotNS_9allocatorIS2_EEE9__end_capB7v160006Ev, symObjAddr: 0xD4F0, symBinAddr: 0x10001060C, symSize: 0x28 }
  - { offsetInCU: 0x109E8, offset: 0x109E8, size: 0x8, addend: 0x0, symName: __ZNKSt3__117__compressed_pairIPP8SLandlotNS_9allocatorIS2_EEE5firstB7v160006Ev, symObjAddr: 0xD518, symBinAddr: 0x100010634, symSize: 0x24 }
  - { offsetInCU: 0x10A0D, offset: 0x10A0D, size: 0x8, addend: 0x0, symName: __ZNKSt3__122__compressed_pair_elemIPP8SLandlotLi0ELb0EE5__getB7v160006Ev, symObjAddr: 0xD53C, symBinAddr: 0x100010658, symSize: 0x14 }
  - { offsetInCU: 0x10A32, offset: 0x10A32, size: 0x8, addend: 0x0, symName: __ZNSt3__16vectorIP8SLandlotNS_9allocatorIS2_EEEC2ERKS5_, symObjAddr: 0xD550, symBinAddr: 0x10001066C, symSize: 0x118 }
  - { offsetInCU: 0x10A9B, offset: 0x10A9B, size: 0x8, addend: 0x0, symName: __ZNSt3__116allocator_traitsINS_9allocatorIP8SLandlotEEE37select_on_container_copy_constructionB7v160006IS4_vvEES4_RKS4_, symObjAddr: 0xD668, symBinAddr: 0x100010784, symSize: 0x10 }
  - { offsetInCU: 0x10ACA, offset: 0x10ACA, size: 0x8, addend: 0x0, symName: __ZNKSt3__16vectorIP8SLandlotNS_9allocatorIS2_EEE7__allocB7v160006Ev, symObjAddr: 0xD678, symBinAddr: 0x100010794, symSize: 0x28 }
  - { offsetInCU: 0x10AF4, offset: 0x10AF4, size: 0x8, addend: 0x0, symName: __ZNSt3__117__compressed_pairIPP8SLandlotNS_9allocatorIS2_EEEC1B7v160006IDnS5_EEOT_OT0_, symObjAddr: 0xD6A0, symBinAddr: 0x1000107BC, symSize: 0x3C }
  - { offsetInCU: 0x10B4B, offset: 0x10B4B, size: 0x8, addend: 0x0, symName: __ZNSt3__16vectorIP8SLandlotNS_9allocatorIS2_EEE11__vallocateB7v160006Em, symObjAddr: 0xD71C, symBinAddr: 0x100010838, symSize: 0xAC }
  - { offsetInCU: 0x10B8D, offset: 0x10B8D, size: 0x8, addend: 0x0, symName: __ZNSt3__16vectorIP8SLandlotNS_9allocatorIS2_EEE18__construct_at_endIPS2_Li0EEEvT_S8_m, symObjAddr: 0xD7C8, symBinAddr: 0x1000108E4, symSize: 0x94 }
  - { offsetInCU: 0x10BFF, offset: 0x10BFF, size: 0x8, addend: 0x0, symName: __ZNSt3__128__exception_guard_exceptionsINS_6vectorIP8SLandlotNS_9allocatorIS3_EEE16__destroy_vectorEE10__completeB7v160006Ev, symObjAddr: 0xD85C, symBinAddr: 0x100010978, symSize: 0x1C }
  - { offsetInCU: 0x10C24, offset: 0x10C24, size: 0x8, addend: 0x0, symName: __ZNSt3__128__exception_guard_exceptionsINS_6vectorIP8SLandlotNS_9allocatorIS3_EEE16__destroy_vectorEED1B7v160006Ev, symObjAddr: 0xD878, symBinAddr: 0x100010994, symSize: 0x2C }
  - { offsetInCU: 0x10C4D, offset: 0x10C4D, size: 0x8, addend: 0x0, symName: __ZNKSt3__117__compressed_pairIPP8SLandlotNS_9allocatorIS2_EEE6secondB7v160006Ev, symObjAddr: 0xD8A4, symBinAddr: 0x1000109C0, symSize: 0x24 }
  - { offsetInCU: 0x10C72, offset: 0x10C72, size: 0x8, addend: 0x0, symName: __ZNKSt3__122__compressed_pair_elemINS_9allocatorIP8SLandlotEELi1ELb1EE5__getB7v160006Ev, symObjAddr: 0xD8C8, symBinAddr: 0x1000109E4, symSize: 0x14 }
  - { offsetInCU: 0x10C97, offset: 0x10C97, size: 0x8, addend: 0x0, symName: __ZNSt3__117__compressed_pairIPP8SLandlotNS_9allocatorIS2_EEEC2B7v160006IDnS5_EEOT_OT0_, symObjAddr: 0xD8DC, symBinAddr: 0x1000109F8, symSize: 0x44 }
  - { offsetInCU: 0x10CEE, offset: 0x10CEE, size: 0x8, addend: 0x0, symName: __ZNSt3__122__compressed_pair_elemINS_9allocatorIP8SLandlotEELi1ELb1EEC2B7v160006IS4_vEEOT_, symObjAddr: 0xD920, symBinAddr: 0x100010A3C, symSize: 0x18 }
  - { offsetInCU: 0x10D2F, offset: 0x10D2F, size: 0x8, addend: 0x0, symName: __ZNSt3__128__exception_guard_exceptionsINS_6vectorIP8SLandlotNS_9allocatorIS3_EEE16__destroy_vectorEEC1B7v160006ES7_, symObjAddr: 0xD938, symBinAddr: 0x100010A54, symSize: 0x34 }
  - { offsetInCU: 0x10D66, offset: 0x10D66, size: 0x8, addend: 0x0, symName: __ZNSt3__128__exception_guard_exceptionsINS_6vectorIP8SLandlotNS_9allocatorIS3_EEE16__destroy_vectorEEC2B7v160006ES7_, symObjAddr: 0xD96C, symBinAddr: 0x100010A88, symSize: 0x24 }
  - { offsetInCU: 0x10D9C, offset: 0x10D9C, size: 0x8, addend: 0x0, symName: __ZNKSt3__16vectorIP8SLandlotNS_9allocatorIS2_EEE8max_sizeEv, symObjAddr: 0xD990, symBinAddr: 0x100010AAC, symSize: 0x74 }
  - { offsetInCU: 0x10DC3, offset: 0x10DC3, size: 0x8, addend: 0x0, symName: __ZNKSt3__16vectorIP8SLandlotNS_9allocatorIS2_EEE20__throw_length_errorB7v160006Ev, symObjAddr: 0xDA04, symBinAddr: 0x100010B20, symSize: 0x1C }
  - { offsetInCU: 0x10DE8, offset: 0x10DE8, size: 0x8, addend: 0x0, symName: __ZNSt3__16vectorIP8SLandlotNS_9allocatorIS2_EEE9__end_capB7v160006Ev, symObjAddr: 0xDA60, symBinAddr: 0x100010B7C, symSize: 0x28 }
  - { offsetInCU: 0x10E0D, offset: 0x10E0D, size: 0x8, addend: 0x0, symName: __ZNKSt3__16vectorIP8SLandlotNS_9allocatorIS2_EEE14__annotate_newB7v160006Em, symObjAddr: 0xDA88, symBinAddr: 0x100010BA4, symSize: 0xAC }
  - { offsetInCU: 0x10E41, offset: 0x10E41, size: 0x8, addend: 0x0, symName: __ZNSt3__116allocator_traitsINS_9allocatorIP8SLandlotEEE8max_sizeB7v160006IS4_vEEmRKS4_, symObjAddr: 0xDB60, symBinAddr: 0x100010C7C, symSize: 0x24 }
  - { offsetInCU: 0x10E6F, offset: 0x10E6F, size: 0x8, addend: 0x0, symName: __ZNSt3__114numeric_limitsIlE3maxB7v160006Ev, symObjAddr: 0xDB84, symBinAddr: 0x100010CA0, symSize: 0x14 }
  - { offsetInCU: 0x10E97, offset: 0x10E97, size: 0x8, addend: 0x0, symName: __ZNKSt3__16__lessImmEclB7v160006ERKmS3_, symObjAddr: 0xDBEC, symBinAddr: 0x100010D08, symSize: 0x34 }
  - { offsetInCU: 0x10ED8, offset: 0x10ED8, size: 0x8, addend: 0x0, symName: __ZNKSt3__19allocatorIP8SLandlotE8max_sizeB7v160006Ev, symObjAddr: 0xDC20, symBinAddr: 0x100010D3C, symSize: 0x14 }
  - { offsetInCU: 0x10EFD, offset: 0x10EFD, size: 0x8, addend: 0x0, symName: __ZNSt3__123__libcpp_numeric_limitsIlLb1EE3maxB7v160006Ev, symObjAddr: 0xDC34, symBinAddr: 0x100010D50, symSize: 0x8 }
  - { offsetInCU: 0x10F11, offset: 0x10F11, size: 0x8, addend: 0x0, symName: __ZNSt12length_errorC1B7v160006EPKc, symObjAddr: 0xDCA0, symBinAddr: 0x100010DBC, symSize: 0x34 }
  - { offsetInCU: 0x10F48, offset: 0x10F48, size: 0x8, addend: 0x0, symName: __ZNSt12length_errorC2B7v160006EPKc, symObjAddr: 0xDCD4, symBinAddr: 0x100010DF0, symSize: 0x4C }
  - { offsetInCU: 0x10F7F, offset: 0x10F7F, size: 0x8, addend: 0x0, symName: __ZNSt3__19allocatorIP8SLandlotE8allocateB7v160006Em, symObjAddr: 0xDD20, symBinAddr: 0x100010E3C, symSize: 0x84 }
  - { offsetInCU: 0x10FB2, offset: 0x10FB2, size: 0x8, addend: 0x0, symName: __ZNSt3__117__compressed_pairIPP8SLandlotNS_9allocatorIS2_EEE5firstB7v160006Ev, symObjAddr: 0xDDA4, symBinAddr: 0x100010EC0, symSize: 0x24 }
  - { offsetInCU: 0x10FD7, offset: 0x10FD7, size: 0x8, addend: 0x0, symName: __ZNSt3__122__compressed_pair_elemIPP8SLandlotLi0ELb0EE5__getB7v160006Ev, symObjAddr: 0xDDC8, symBinAddr: 0x100010EE4, symSize: 0x14 }
  - { offsetInCU: 0x11015, offset: 0x11015, size: 0x8, addend: 0x0, symName: __ZNSt3__16vectorIP8SLandlotNS_9allocatorIS2_EEE21_ConstructTransactionC1B7v160006ERS5_m, symObjAddr: 0xDDDC, symBinAddr: 0x100010EF8, symSize: 0x3C }
  - { offsetInCU: 0x1105C, offset: 0x1105C, size: 0x8, addend: 0x0, symName: __ZNSt3__16vectorIP8SLandlotNS_9allocatorIS2_EEE21_ConstructTransactionD1B7v160006Ev, symObjAddr: 0xDF14, symBinAddr: 0x100011030, symSize: 0x2C }
  - { offsetInCU: 0x11085, offset: 0x11085, size: 0x8, addend: 0x0, symName: __ZNSt3__16vectorIP8SLandlotNS_9allocatorIS2_EEE21_ConstructTransactionC2B7v160006ERS5_m, symObjAddr: 0xDF40, symBinAddr: 0x10001105C, symSize: 0x44 }
  - { offsetInCU: 0x110CC, offset: 0x110CC, size: 0x8, addend: 0x0, symName: __ZNSt3__129_AllocatorDestroyRangeReverseINS_9allocatorIP8SLandlotEEPS3_EC1B7v160006ERS4_RS5_S8_, symObjAddr: 0xDFD0, symBinAddr: 0x1000110EC, symSize: 0x44 }
  - { offsetInCU: 0x11122, offset: 0x11122, size: 0x8, addend: 0x0, symName: __ZNSt3__116allocator_traitsINS_9allocatorIP8SLandlotEEE9constructB7v160006IS3_JRS3_EvEEvRS4_PT_DpOT0_, symObjAddr: 0xE014, symBinAddr: 0x100011130, symSize: 0x34 }
  - { offsetInCU: 0x11179, offset: 0x11179, size: 0x8, addend: 0x0, symName: __ZNSt3__128__exception_guard_exceptionsINS_29_AllocatorDestroyRangeReverseINS_9allocatorIP8SLandlotEEPS4_EEE10__completeB7v160006Ev, symObjAddr: 0xE048, symBinAddr: 0x100011164, symSize: 0x1C }
  - { offsetInCU: 0x1119E, offset: 0x1119E, size: 0x8, addend: 0x0, symName: __ZNSt3__128__exception_guard_exceptionsINS_29_AllocatorDestroyRangeReverseINS_9allocatorIP8SLandlotEEPS4_EEED1B7v160006Ev, symObjAddr: 0xE064, symBinAddr: 0x100011180, symSize: 0x2C }
  - { offsetInCU: 0x111C7, offset: 0x111C7, size: 0x8, addend: 0x0, symName: __ZNSt3__128__exception_guard_exceptionsINS_29_AllocatorDestroyRangeReverseINS_9allocatorIP8SLandlotEEPS4_EEEC1B7v160006ES7_, symObjAddr: 0xE090, symBinAddr: 0x1000111AC, symSize: 0x34 }
  - { offsetInCU: 0x111FF, offset: 0x111FF, size: 0x8, addend: 0x0, symName: __ZNSt3__128__exception_guard_exceptionsINS_29_AllocatorDestroyRangeReverseINS_9allocatorIP8SLandlotEEPS4_EEEC2B7v160006ES7_, symObjAddr: 0xE0C4, symBinAddr: 0x1000111E0, symSize: 0x30 }
  - { offsetInCU: 0x11237, offset: 0x11237, size: 0x8, addend: 0x0, symName: __ZNSt3__129_AllocatorDestroyRangeReverseINS_9allocatorIP8SLandlotEEPS3_EC2B7v160006ERS4_RS5_S8_, symObjAddr: 0xE0F4, symBinAddr: 0x100011210, symSize: 0x38 }
  - { offsetInCU: 0x1128D, offset: 0x1128D, size: 0x8, addend: 0x0, symName: __ZNSt3__19allocatorIP8SLandlotE9constructB7v160006IS2_JRS2_EEEvPT_DpOT0_, symObjAddr: 0xE12C, symBinAddr: 0x100011248, symSize: 0x28 }
  - { offsetInCU: 0x112E2, offset: 0x112E2, size: 0x8, addend: 0x0, symName: __ZNSt3__128__exception_guard_exceptionsINS_29_AllocatorDestroyRangeReverseINS_9allocatorIP8SLandlotEEPS4_EEED2B7v160006Ev, symObjAddr: 0xE154, symBinAddr: 0x100011270, symSize: 0x48 }
  - { offsetInCU: 0x1130B, offset: 0x1130B, size: 0x8, addend: 0x0, symName: __ZNKSt3__129_AllocatorDestroyRangeReverseINS_9allocatorIP8SLandlotEEPS3_EclB7v160006Ev, symObjAddr: 0xE19C, symBinAddr: 0x1000112B8, symSize: 0x68 }
  - { offsetInCU: 0x11330, offset: 0x11330, size: 0x8, addend: 0x0, symName: __ZNSt3__116reverse_iteratorIPP8SLandlotEC1B7v160006ES3_, symObjAddr: 0xE274, symBinAddr: 0x100011390, symSize: 0x34 }
  - { offsetInCU: 0x11367, offset: 0x11367, size: 0x8, addend: 0x0, symName: __ZNSt3__116reverse_iteratorIPP8SLandlotEppB7v160006Ev, symObjAddr: 0xE314, symBinAddr: 0x100011430, symSize: 0x20 }
  - { offsetInCU: 0x1138C, offset: 0x1138C, size: 0x8, addend: 0x0, symName: __ZNKSt3__116reverse_iteratorIPP8SLandlotE4baseB7v160006Ev, symObjAddr: 0xE334, symBinAddr: 0x100011450, symSize: 0x18 }
  - { offsetInCU: 0x113B6, offset: 0x113B6, size: 0x8, addend: 0x0, symName: __ZNSt3__119__to_address_helperINS_16reverse_iteratorIPP8SLandlotEEvE6__callB7v160006ERKS5_, symObjAddr: 0xE34C, symBinAddr: 0x100011468, symSize: 0x4C }
  - { offsetInCU: 0x113D9, offset: 0x113D9, size: 0x8, addend: 0x0, symName: __ZNKSt3__116reverse_iteratorIPP8SLandlotEptB7v160006Ev, symObjAddr: 0xE398, symBinAddr: 0x1000114B4, symSize: 0x24 }
  - { offsetInCU: 0x113FE, offset: 0x113FE, size: 0x8, addend: 0x0, symName: __ZNKSt3__116reverse_iteratorIPP8SLandlotEdeB7v160006Ev, symObjAddr: 0xE3BC, symBinAddr: 0x1000114D8, symSize: 0x28 }
  - { offsetInCU: 0x11431, offset: 0x11431, size: 0x8, addend: 0x0, symName: __ZNSt3__116reverse_iteratorIPP8SLandlotEC2B7v160006ES3_, symObjAddr: 0xE3E4, symBinAddr: 0x100011500, symSize: 0x28 }
  - { offsetInCU: 0x11468, offset: 0x11468, size: 0x8, addend: 0x0, symName: __ZNSt3__16vectorIP8SLandlotNS_9allocatorIS2_EEE21_ConstructTransactionD2B7v160006Ev, symObjAddr: 0xE40C, symBinAddr: 0x100011528, symSize: 0x20 }
  - { offsetInCU: 0x11491, offset: 0x11491, size: 0x8, addend: 0x0, symName: __ZNSt3__128__exception_guard_exceptionsINS_6vectorIP8SLandlotNS_9allocatorIS3_EEE16__destroy_vectorEED2B7v160006Ev, symObjAddr: 0xE42C, symBinAddr: 0x100011548, symSize: 0x48 }
  - { offsetInCU: 0x114BA, offset: 0x114BA, size: 0x8, addend: 0x0, symName: __ZNKSt3__16vectorIP8SLandlotNS_9allocatorIS2_EEE20__throw_out_of_rangeB7v160006Ev, symObjAddr: 0xE474, symBinAddr: 0x100011590, symSize: 0x1C }
  - { offsetInCU: 0x114DF, offset: 0x114DF, size: 0x8, addend: 0x0, symName: __ZNSt12out_of_rangeC1B7v160006EPKc, symObjAddr: 0xE4F4, symBinAddr: 0x100011610, symSize: 0x34 }
  - { offsetInCU: 0x11516, offset: 0x11516, size: 0x8, addend: 0x0, symName: __ZNSt12out_of_rangeC2B7v160006EPKc, symObjAddr: 0xE528, symBinAddr: 0x100011644, symSize: 0x4C }
  - { offsetInCU: 0x1154D, offset: 0x1154D, size: 0x8, addend: 0x0, symName: __ZNKSt3__112basic_stringIcNS_11char_traitsIcEENS_9allocatorIcEEE4dataB7v160006Ev, symObjAddr: 0xE574, symBinAddr: 0x100011690, symSize: 0x28 }
  - { offsetInCU: 0x11572, offset: 0x11572, size: 0x8, addend: 0x0, symName: __ZNSt3__111char_traitsIcE7compareEPKcS3_m, symObjAddr: 0xE59C, symBinAddr: 0x1000116B8, symSize: 0x80 }
  - { offsetInCU: 0x115B1, offset: 0x115B1, size: 0x8, addend: 0x0, symName: __ZNKSt3__112basic_stringIcNS_11char_traitsIcEENS_9allocatorIcEEE13__get_pointerB7v160006Ev, symObjAddr: 0xE630, symBinAddr: 0x10001174C, symSize: 0x54 }
  - { offsetInCU: 0x115D6, offset: 0x115D6, size: 0x8, addend: 0x0, symName: __ZNKSt3__112basic_stringIcNS_11char_traitsIcEENS_9allocatorIcEEE18__get_long_pointerB7v160006Ev, symObjAddr: 0xE684, symBinAddr: 0x1000117A0, symSize: 0x28 }
  - { offsetInCU: 0x115FB, offset: 0x115FB, size: 0x8, addend: 0x0, symName: __ZNKSt3__112basic_stringIcNS_11char_traitsIcEENS_9allocatorIcEEE19__get_short_pointerB7v160006Ev, symObjAddr: 0xE6AC, symBinAddr: 0x1000117C8, symSize: 0x28 }
  - { offsetInCU: 0x11620, offset: 0x11620, size: 0x8, addend: 0x0, symName: __ZNSt3__114pointer_traitsIPKcE10pointer_toB7v160006ERS1_, symObjAddr: 0xE6D4, symBinAddr: 0x1000117F0, symSize: 0x14 }
  - { offsetInCU: 0x11642, offset: 0x11642, size: 0x8, addend: 0x0, symName: __ZNKSt3__112basic_stringIcNS_11char_traitsIcEENS_9allocatorIcEEE7compareB7v160006ERKS5_, symObjAddr: 0xE71C, symBinAddr: 0x100011838, symSize: 0x4C }
  - { offsetInCU: 0x11677, offset: 0x11677, size: 0x8, addend: 0x0, symName: __ZNKSt3__112basic_stringIcNS_11char_traitsIcEENS_9allocatorIcEEE7compareINS_17basic_string_viewIcS2_EEEENS_9enable_ifIXsr33__can_be_converted_to_string_viewIcS2_T_EE5valueEiE4typeERKSA_, symObjAddr: 0xE768, symBinAddr: 0x100011884, symSize: 0x140 }
  - { offsetInCU: 0x116F3, offset: 0x116F3, size: 0x8, addend: 0x0, symName: __ZNKSt3__112basic_stringIcNS_11char_traitsIcEENS_9allocatorIcEEEcvNS_17basic_string_viewIcS2_EEB7v160006Ev, symObjAddr: 0xE8A8, symBinAddr: 0x1000119C4, symSize: 0x50 }
  - { offsetInCU: 0x11718, offset: 0x11718, size: 0x8, addend: 0x0, symName: __ZNKSt3__117basic_string_viewIcNS_11char_traitsIcEEE4sizeB7v160006Ev, symObjAddr: 0xE8F8, symBinAddr: 0x100011A14, symSize: 0x18 }
  - { offsetInCU: 0x1173D, offset: 0x1173D, size: 0x8, addend: 0x0, symName: __ZNKSt3__117basic_string_viewIcNS_11char_traitsIcEEE4dataB7v160006Ev, symObjAddr: 0xE910, symBinAddr: 0x100011A2C, symSize: 0x18 }
  - { offsetInCU: 0x11762, offset: 0x11762, size: 0x8, addend: 0x0, symName: __ZNSt3__117basic_string_viewIcNS_11char_traitsIcEEEC1B7v160006EPKcm, symObjAddr: 0xE928, symBinAddr: 0x100011A44, symSize: 0x3C }
  - { offsetInCU: 0x117A9, offset: 0x117A9, size: 0x8, addend: 0x0, symName: __ZNSt3__117basic_string_viewIcNS_11char_traitsIcEEEC2B7v160006EPKcm, symObjAddr: 0xE964, symBinAddr: 0x100011A80, symSize: 0x2C }
  - { offsetInCU: 0x117F0, offset: 0x117F0, size: 0x8, addend: 0x0, symName: __ZNKSt3__16vectorIP8SLandlotNS_9allocatorIS2_EEE11__make_iterB7v160006EPKS2_, symObjAddr: 0xE990, symBinAddr: 0x100011AAC, symSize: 0x34 }
  - { offsetInCU: 0x11824, offset: 0x11824, size: 0x8, addend: 0x0, symName: __ZNSt3__111__wrap_iterIPKP8SLandlotEC1B7v160006EPKvS4_, symObjAddr: 0xE9C4, symBinAddr: 0x100011AE0, symSize: 0x3C }
  - { offsetInCU: 0x11869, offset: 0x11869, size: 0x8, addend: 0x0, symName: __ZNSt3__111__wrap_iterIPKP8SLandlotEC2B7v160006EPKvS4_, symObjAddr: 0xEA00, symBinAddr: 0x100011B1C, symSize: 0x24 }
  - { offsetInCU: 0x118AE, offset: 0x118AE, size: 0x8, addend: 0x0, symName: __ZNSt3__18_IterOpsINS_17_ClassicAlgPolicyEE8distanceB7v160006INS_11__wrap_iterIPKP8SLandlotEEEENS_15iterator_traitsIT_E15difference_typeESB_SB_, symObjAddr: 0xEB2C, symBinAddr: 0x100011C48, symSize: 0x3C }
  - { offsetInCU: 0x118E8, offset: 0x118E8, size: 0x8, addend: 0x0, symName: __ZNSt3__18_IterOpsINS_17_ClassicAlgPolicyEE7advanceB7v160006INS_11__wrap_iterIPKP8SLandlotEElEEvRT_T0_, symObjAddr: 0xEB84, symBinAddr: 0x100011CA0, symSize: 0x2C }
  - { offsetInCU: 0x1192B, offset: 0x1192B, size: 0x8, addend: 0x0, symName: __ZNSt3__111__wrap_iterIPKP8SLandlotEppB7v160006Ev, symObjAddr: 0xEC20, symBinAddr: 0x100011D3C, symSize: 0x20 }
  - { offsetInCU: 0x11950, offset: 0x11950, size: 0x8, addend: 0x0, symName: __ZNKSt3__111__wrap_iterIPKP8SLandlotE4baseB7v160006Ev, symObjAddr: 0xECF4, symBinAddr: 0x100011E10, symSize: 0x18 }
  - { offsetInCU: 0x11975, offset: 0x11975, size: 0x8, addend: 0x0, symName: __ZNSt3__111__wrap_iterIPKP8SLandlotEpLB7v160006El, symObjAddr: 0xED9C, symBinAddr: 0x100011EB8, symSize: 0x28 }
  - { offsetInCU: 0x119B2, offset: 0x119B2, size: 0x8, addend: 0x0, symName: __ZNKSt3__110__identityclIRKP8SLandlotEEOT_S7_, symObjAddr: 0xEDC4, symBinAddr: 0x100011EE0, symSize: 0x18 }
  - { offsetInCU: 0x119EE, offset: 0x119EE, size: 0x8, addend: 0x0, symName: __ZNKSt3__16vectorI5OwnerNS_9allocatorIS1_EEE11__make_iterB7v160006EPKS1_, symObjAddr: 0xEE24, symBinAddr: 0x100011F40, symSize: 0x34 }
  - { offsetInCU: 0x11A22, offset: 0x11A22, size: 0x8, addend: 0x0, symName: __ZNSt3__111__wrap_iterIPK5OwnerEC1B7v160006EPKvS3_, symObjAddr: 0xEE58, symBinAddr: 0x100011F74, symSize: 0x3C }
  - { offsetInCU: 0x11A67, offset: 0x11A67, size: 0x8, addend: 0x0, symName: __ZNSt3__111__wrap_iterIPK5OwnerEC2B7v160006EPKvS3_, symObjAddr: 0xEE94, symBinAddr: 0x100011FB0, symSize: 0x24 }
  - { offsetInCU: 0x11AAC, offset: 0x11AAC, size: 0x8, addend: 0x0, symName: __ZNKSt3__111__wrap_iterIPK5OwnerE4baseB7v160006Ev, symObjAddr: 0xEF00, symBinAddr: 0x10001201C, symSize: 0x18 }
  - { offsetInCU: 0x11AD1, offset: 0x11AD1, size: 0x8, addend: 0x0, symName: __ZNSt3__16vectorI5OwnerNS_9allocatorIS1_EEEC2B7v160006Ev, symObjAddr: 0xEF18, symBinAddr: 0x100012034, symSize: 0x4C }
  - { offsetInCU: 0x11AFA, offset: 0x11AFA, size: 0x8, addend: 0x0, symName: __ZNSt3__117__compressed_pairIP5OwnerNS_9allocatorIS1_EEEC1B7v160006IDnNS_18__default_init_tagEEEOT_OT0_, symObjAddr: 0xEF64, symBinAddr: 0x100012080, symSize: 0x3C }
  - { offsetInCU: 0x11B51, offset: 0x11B51, size: 0x8, addend: 0x0, symName: __ZNSt3__117__compressed_pairIP5OwnerNS_9allocatorIS1_EEEC2B7v160006IDnNS_18__default_init_tagEEEOT_OT0_, symObjAddr: 0xEFB0, symBinAddr: 0x1000120CC, symSize: 0x40 }
  - { offsetInCU: 0x11BA8, offset: 0x11BA8, size: 0x8, addend: 0x0, symName: __ZNSt3__122__compressed_pair_elemIP5OwnerLi0ELb0EEC2B7v160006IDnvEEOT_, symObjAddr: 0xEFF0, symBinAddr: 0x10001210C, symSize: 0x1C }
  - { offsetInCU: 0x11BE9, offset: 0x11BE9, size: 0x8, addend: 0x0, symName: __ZNSt3__122__compressed_pair_elemINS_9allocatorI5OwnerEELi1ELb1EEC2B7v160006ENS_18__default_init_tagE, symObjAddr: 0xF00C, symBinAddr: 0x100012128, symSize: 0x2C }
  - { offsetInCU: 0x11C1C, offset: 0x11C1C, size: 0x8, addend: 0x0, symName: __ZNSt3__19allocatorI5OwnerEC2B7v160006Ev, symObjAddr: 0xF038, symBinAddr: 0x100012154, symSize: 0x2C }
  - { offsetInCU: 0x11C45, offset: 0x11C45, size: 0x8, addend: 0x0, symName: __ZNSt3__116__non_trivial_ifILb1ENS_9allocatorI5OwnerEEEC2B7v160006Ev, symObjAddr: 0xF064, symBinAddr: 0x100012180, symSize: 0x14 }
  - { offsetInCU: 0x11C6E, offset: 0x11C6E, size: 0x8, addend: 0x0, symName: __ZNSt3__16vectorI5OwnerNS_9allocatorIS1_EEED2B7v160006Ev, symObjAddr: 0xF078, symBinAddr: 0x100012194, symSize: 0x3C }
  - { offsetInCU: 0x11C97, offset: 0x11C97, size: 0x8, addend: 0x0, symName: __ZNSt3__16vectorI5OwnerNS_9allocatorIS1_EEE16__destroy_vectorC1ERS4_, symObjAddr: 0xF0B4, symBinAddr: 0x1000121D0, symSize: 0x34 }
  - { offsetInCU: 0x11CCF, offset: 0x11CCF, size: 0x8, addend: 0x0, symName: __ZNSt3__16vectorI5OwnerNS_9allocatorIS1_EEE16__destroy_vectorclB7v160006Ev, symObjAddr: 0xF0E8, symBinAddr: 0x100012204, symSize: 0x9C }
  - { offsetInCU: 0x11CF4, offset: 0x11CF4, size: 0x8, addend: 0x0, symName: __ZNSt3__16vectorI5OwnerNS_9allocatorIS1_EEE16__destroy_vectorC2ERS4_, symObjAddr: 0xF184, symBinAddr: 0x1000122A0, symSize: 0x20 }
  - { offsetInCU: 0x11D2C, offset: 0x11D2C, size: 0x8, addend: 0x0, symName: __ZNKSt3__16vectorI5OwnerNS_9allocatorIS1_EEE17__annotate_deleteB7v160006Ev, symObjAddr: 0xF1A4, symBinAddr: 0x1000122C0, symSize: 0xD4 }
  - { offsetInCU: 0x11D51, offset: 0x11D51, size: 0x8, addend: 0x0, symName: __ZNSt3__16vectorI5OwnerNS_9allocatorIS1_EEE7__clearB7v160006Ev, symObjAddr: 0xF288, symBinAddr: 0x1000123A4, symSize: 0x28 }
  - { offsetInCU: 0x11D76, offset: 0x11D76, size: 0x8, addend: 0x0, symName: __ZNSt3__116allocator_traitsINS_9allocatorI5OwnerEEE10deallocateB7v160006ERS3_PS2_m, symObjAddr: 0xF2B0, symBinAddr: 0x1000123CC, symSize: 0x34 }
  - { offsetInCU: 0x11DB8, offset: 0x11DB8, size: 0x8, addend: 0x0, symName: __ZNSt3__16vectorI5OwnerNS_9allocatorIS1_EEE7__allocB7v160006Ev, symObjAddr: 0xF2E4, symBinAddr: 0x100012400, symSize: 0x28 }
  - { offsetInCU: 0x11DDD, offset: 0x11DDD, size: 0x8, addend: 0x0, symName: __ZNKSt3__16vectorI5OwnerNS_9allocatorIS1_EEE8capacityB7v160006Ev, symObjAddr: 0xF30C, symBinAddr: 0x100012428, symSize: 0x40 }
  - { offsetInCU: 0x11E02, offset: 0x11E02, size: 0x8, addend: 0x0, symName: __ZNKSt3__16vectorI5OwnerNS_9allocatorIS1_EEE31__annotate_contiguous_containerB7v160006EPKvS6_S6_S6_, symObjAddr: 0xF34C, symBinAddr: 0x100012468, symSize: 0x20 }
  - { offsetInCU: 0x11E53, offset: 0x11E53, size: 0x8, addend: 0x0, symName: __ZNKSt3__16vectorI5OwnerNS_9allocatorIS1_EEE4dataB7v160006Ev, symObjAddr: 0xF36C, symBinAddr: 0x100012488, symSize: 0x28 }
  - { offsetInCU: 0x11E78, offset: 0x11E78, size: 0x8, addend: 0x0, symName: __ZNKSt3__16vectorI5OwnerNS_9allocatorIS1_EEE4sizeB7v160006Ev, symObjAddr: 0xF394, symBinAddr: 0x1000124B0, symSize: 0x28 }
  - { offsetInCU: 0x11E9D, offset: 0x11E9D, size: 0x8, addend: 0x0, symName: __ZNSt3__16vectorI5OwnerNS_9allocatorIS1_EEE22__base_destruct_at_endB7v160006EPS1_, symObjAddr: 0xF3D0, symBinAddr: 0x1000124EC, symSize: 0xA0 }
  - { offsetInCU: 0x11EE0, offset: 0x11EE0, size: 0x8, addend: 0x0, symName: __ZNSt3__116allocator_traitsINS_9allocatorI5OwnerEEE7destroyB7v160006IS2_vEEvRS3_PT_, symObjAddr: 0xF470, symBinAddr: 0x10001258C, symSize: 0x2C }
  - { offsetInCU: 0x11F1D, offset: 0x11F1D, size: 0x8, addend: 0x0, symName: __ZNSt3__19allocatorI5OwnerE7destroyB7v160006EPS1_, symObjAddr: 0xF49C, symBinAddr: 0x1000125B8, symSize: 0x28 }
  - { offsetInCU: 0x11F50, offset: 0x11F50, size: 0x8, addend: 0x0, symName: __ZNSt3__19allocatorI5OwnerE10deallocateB7v160006EPS1_m, symObjAddr: 0xF4C4, symBinAddr: 0x1000125E0, symSize: 0x74 }
  - { offsetInCU: 0x11F91, offset: 0x11F91, size: 0x8, addend: 0x0, symName: __ZNSt3__117__compressed_pairIP5OwnerNS_9allocatorIS1_EEE6secondB7v160006Ev, symObjAddr: 0xF538, symBinAddr: 0x100012654, symSize: 0x24 }
  - { offsetInCU: 0x11FB6, offset: 0x11FB6, size: 0x8, addend: 0x0, symName: __ZNSt3__122__compressed_pair_elemINS_9allocatorI5OwnerEELi1ELb1EE5__getB7v160006Ev, symObjAddr: 0xF55C, symBinAddr: 0x100012678, symSize: 0x14 }
  - { offsetInCU: 0x11FDB, offset: 0x11FDB, size: 0x8, addend: 0x0, symName: __ZNKSt3__16vectorI5OwnerNS_9allocatorIS1_EEE9__end_capB7v160006Ev, symObjAddr: 0xF570, symBinAddr: 0x10001268C, symSize: 0x28 }
  - { offsetInCU: 0x12000, offset: 0x12000, size: 0x8, addend: 0x0, symName: __ZNKSt3__117__compressed_pairIP5OwnerNS_9allocatorIS1_EEE5firstB7v160006Ev, symObjAddr: 0xF598, symBinAddr: 0x1000126B4, symSize: 0x24 }
  - { offsetInCU: 0x12025, offset: 0x12025, size: 0x8, addend: 0x0, symName: __ZNKSt3__122__compressed_pair_elemIP5OwnerLi0ELb0EE5__getB7v160006Ev, symObjAddr: 0xF5BC, symBinAddr: 0x1000126D8, symSize: 0x14 }
  - { offsetInCU: 0x1204A, offset: 0x1204A, size: 0x8, addend: 0x0, symName: __ZNSt3__16vectorIP8SLandlotNS_9allocatorIS2_EEE11__make_iterB7v160006EPS2_, symObjAddr: 0xF5D0, symBinAddr: 0x1000126EC, symSize: 0x34 }
  - { offsetInCU: 0x1207E, offset: 0x1207E, size: 0x8, addend: 0x0, symName: __ZNSt3__111__wrap_iterIPP8SLandlotEC1B7v160006EPKvS3_, symObjAddr: 0xF604, symBinAddr: 0x100012720, symSize: 0x3C }
  - { offsetInCU: 0x120C3, offset: 0x120C3, size: 0x8, addend: 0x0, symName: __ZNSt3__111__wrap_iterIPP8SLandlotEC2B7v160006EPKvS3_, symObjAddr: 0xF640, symBinAddr: 0x10001275C, symSize: 0x24 }
  - { offsetInCU: 0x12108, offset: 0x12108, size: 0x8, addend: 0x0, symName: __ZNKSt3__111__wrap_iterIPP8SLandlotE4baseB7v160006Ev, symObjAddr: 0xF6AC, symBinAddr: 0x1000127C8, symSize: 0x18 }
  - { offsetInCU: 0x1212D, offset: 0x1212D, size: 0x8, addend: 0x0, symName: __ZNSt3__18_IterOpsINS_17_ClassicAlgPolicyEE8distanceB7v160006INS_11__wrap_iterIPP8SLandlotEEEENS_15iterator_traitsIT_E15difference_typeESA_SA_, symObjAddr: 0xF7CC, symBinAddr: 0x1000128E8, symSize: 0x3C }
  - { offsetInCU: 0x12167, offset: 0x12167, size: 0x8, addend: 0x0, symName: __ZNSt3__18_IterOpsINS_17_ClassicAlgPolicyEE7advanceB7v160006INS_11__wrap_iterIPP8SLandlotEElEEvRT_T0_, symObjAddr: 0xF808, symBinAddr: 0x100012924, symSize: 0x2C }
  - { offsetInCU: 0x121AA, offset: 0x121AA, size: 0x8, addend: 0x0, symName: __ZNSt3__111__wrap_iterIPP8SLandlotEpLB7v160006El, symObjAddr: 0xF9D4, symBinAddr: 0x100012AF0, symSize: 0x28 }
  - { offsetInCU: 0x121DD, offset: 0x121DD, size: 0x8, addend: 0x0, symName: __ZNKSt3__110__identityclIRP8SLandlotEEOT_S6_, symObjAddr: 0xF9FC, symBinAddr: 0x100012B18, symSize: 0x18 }
  - { offsetInCU: 0x12219, offset: 0x12219, size: 0x8, addend: 0x0, symName: __ZNSt3__16vectorI5OwnerNS_9allocatorIS1_EEE11__make_iterB7v160006EPS1_, symObjAddr: 0xFA14, symBinAddr: 0x100012B30, symSize: 0x34 }
  - { offsetInCU: 0x1224D, offset: 0x1224D, size: 0x8, addend: 0x0, symName: __ZNSt3__111__wrap_iterIP5OwnerEC1B7v160006EPKvS2_, symObjAddr: 0xFA48, symBinAddr: 0x100012B64, symSize: 0x3C }
  - { offsetInCU: 0x12292, offset: 0x12292, size: 0x8, addend: 0x0, symName: __ZNSt3__111__wrap_iterIP5OwnerEC2B7v160006EPKvS2_, symObjAddr: 0xFA84, symBinAddr: 0x100012BA0, symSize: 0x24 }
  - { offsetInCU: 0x122D7, offset: 0x122D7, size: 0x8, addend: 0x0, symName: __ZNSt3__18_IterOpsINS_17_ClassicAlgPolicyEE8distanceB7v160006INS_11__wrap_iterIP5OwnerEEEENS_15iterator_traitsIT_E15difference_typeES9_S9_, symObjAddr: 0xFBB0, symBinAddr: 0x100012CCC, symSize: 0x3C }
  - { offsetInCU: 0x12311, offset: 0x12311, size: 0x8, addend: 0x0, symName: __ZNSt3__18_IterOpsINS_17_ClassicAlgPolicyEE7advanceB7v160006INS_11__wrap_iterIP5OwnerEElEEvRT_T0_, symObjAddr: 0xFBEC, symBinAddr: 0x100012D08, symSize: 0x2C }
  - { offsetInCU: 0x12354, offset: 0x12354, size: 0x8, addend: 0x0, symName: __ZNKSt3__111__wrap_iterIP5OwnerEdeB7v160006Ev, symObjAddr: 0xFC80, symBinAddr: 0x100012D9C, symSize: 0x18 }
  - { offsetInCU: 0x12379, offset: 0x12379, size: 0x8, addend: 0x0, symName: __ZNSt3__111__wrap_iterIP5OwnerEppB7v160006Ev, symObjAddr: 0xFC98, symBinAddr: 0x100012DB4, symSize: 0x20 }
  - { offsetInCU: 0x1239E, offset: 0x1239E, size: 0x8, addend: 0x0, symName: __ZNKSt3__111__wrap_iterIP5OwnerE4baseB7v160006Ev, symObjAddr: 0xFD6C, symBinAddr: 0x100012E88, symSize: 0x18 }
  - { offsetInCU: 0x123C3, offset: 0x123C3, size: 0x8, addend: 0x0, symName: __ZNSt3__111__wrap_iterIP5OwnerEpLB7v160006El, symObjAddr: 0xFE00, symBinAddr: 0x100012F1C, symSize: 0x30 }
  - { offsetInCU: 0x123F6, offset: 0x123F6, size: 0x8, addend: 0x0, symName: __ZNKSt3__110__identityclIR5OwnerEEOT_S5_, symObjAddr: 0xFE30, symBinAddr: 0x100012F4C, symSize: 0x18 }
  - { offsetInCU: 0x12432, offset: 0x12432, size: 0x8, addend: 0x0, symName: __ZNSt3__111__wrap_iterIPK5OwnerEC2B7v160006IPS1_EERKNS0_IT_EEPNS_9enable_ifIXsr14is_convertibleIS7_S3_EE5valueEvE4typeE, symObjAddr: 0xFE48, symBinAddr: 0x100012F64, symSize: 0x40 }
  - { offsetInCU: 0x1247C, offset: 0x1247C, size: 0x8, addend: 0x0, symName: __ZNSt3__16vectorI5OwnerNS_9allocatorIS1_EEE9__end_capB7v160006Ev, symObjAddr: 0xFED0, symBinAddr: 0x100012FEC, symSize: 0x28 }
  - { offsetInCU: 0x124A1, offset: 0x124A1, size: 0x8, addend: 0x0, symName: __ZNSt3__16vectorI5OwnerNS_9allocatorIS1_EEE22__construct_one_at_endB7v160006IJS1_EEEvDpOT_, symObjAddr: 0xFEF8, symBinAddr: 0x100013014, symSize: 0x98 }
  - { offsetInCU: 0x124EE, offset: 0x124EE, size: 0x8, addend: 0x0, symName: __ZNSt3__16vectorI5OwnerNS_9allocatorIS1_EEE12__move_rangeEPS1_S5_S5_, symObjAddr: 0xFF90, symBinAddr: 0x1000130AC, symSize: 0x144 }
  - { offsetInCU: 0x125A9, offset: 0x125A9, size: 0x8, addend: 0x0, symName: __ZN5OwneraSERKS_, symObjAddr: 0x100D4, symBinAddr: 0x1000131F0, symSize: 0x48 }
  - { offsetInCU: 0x125D8, offset: 0x125D8, size: 0x8, addend: 0x0, symName: __ZNKSt3__16vectorI5OwnerNS_9allocatorIS1_EEE11__recommendB7v160006Em, symObjAddr: 0x1011C, symBinAddr: 0x100013238, symSize: 0xB4 }
  - { offsetInCU: 0x1262C, offset: 0x1262C, size: 0x8, addend: 0x0, symName: __ZNSt3__114__split_bufferI5OwnerRNS_9allocatorIS1_EEEC1EmmS4_, symObjAddr: 0x101D0, symBinAddr: 0x1000132EC, symSize: 0x44 }
  - { offsetInCU: 0x12680, offset: 0x12680, size: 0x8, addend: 0x0, symName: __ZNSt3__114__split_bufferI5OwnerRNS_9allocatorIS1_EEE9push_backEOS1_, symObjAddr: 0x10214, symBinAddr: 0x100013330, symSize: 0x270 }
  - { offsetInCU: 0x126F8, offset: 0x126F8, size: 0x8, addend: 0x0, symName: __ZNSt3__114__split_bufferI5OwnerRNS_9allocatorIS1_EEED1Ev, symObjAddr: 0x105D8, symBinAddr: 0x1000136F4, symSize: 0x2C }
  - { offsetInCU: 0x12723, offset: 0x12723, size: 0x8, addend: 0x0, symName: __ZNSt3__117__compressed_pairIP5OwnerNS_9allocatorIS1_EEE5firstB7v160006Ev, symObjAddr: 0x10604, symBinAddr: 0x100013720, symSize: 0x24 }
  - { offsetInCU: 0x12748, offset: 0x12748, size: 0x8, addend: 0x0, symName: __ZNSt3__122__compressed_pair_elemIP5OwnerLi0ELb0EE5__getB7v160006Ev, symObjAddr: 0x10628, symBinAddr: 0x100013744, symSize: 0x14 }
  - { offsetInCU: 0x12786, offset: 0x12786, size: 0x8, addend: 0x0, symName: __ZNSt3__16vectorI5OwnerNS_9allocatorIS1_EEE21_ConstructTransactionC1B7v160006ERS4_m, symObjAddr: 0x1063C, symBinAddr: 0x100013758, symSize: 0x3C }
  - { offsetInCU: 0x127CD, offset: 0x127CD, size: 0x8, addend: 0x0, symName: __ZNSt3__116allocator_traitsINS_9allocatorI5OwnerEEE9constructB7v160006IS2_JS2_EvEEvRS3_PT_DpOT0_, symObjAddr: 0x10678, symBinAddr: 0x100013794, symSize: 0x34 }
  - { offsetInCU: 0x12824, offset: 0x12824, size: 0x8, addend: 0x0, symName: __ZNSt3__16vectorI5OwnerNS_9allocatorIS1_EEE21_ConstructTransactionD1B7v160006Ev, symObjAddr: 0x106AC, symBinAddr: 0x1000137C8, symSize: 0x2C }
  - { offsetInCU: 0x1284D, offset: 0x1284D, size: 0x8, addend: 0x0, symName: __ZNSt3__16vectorI5OwnerNS_9allocatorIS1_EEE21_ConstructTransactionC2B7v160006ERS4_m, symObjAddr: 0x106D8, symBinAddr: 0x1000137F4, symSize: 0x4C }
  - { offsetInCU: 0x12894, offset: 0x12894, size: 0x8, addend: 0x0, symName: __ZNSt3__19allocatorI5OwnerE9constructB7v160006IS1_JS1_EEEvPT_DpOT0_, symObjAddr: 0x10724, symBinAddr: 0x100013840, symSize: 0x30 }
  - { offsetInCU: 0x128E9, offset: 0x128E9, size: 0x8, addend: 0x0, symName: __ZN5OwnerC1ERKS_, symObjAddr: 0x10754, symBinAddr: 0x100013870, symSize: 0x34 }
  - { offsetInCU: 0x1291D, offset: 0x1291D, size: 0x8, addend: 0x0, symName: __ZN5OwnerC2ERKS_, symObjAddr: 0x10788, symBinAddr: 0x1000138A4, symSize: 0x78 }
  - { offsetInCU: 0x12951, offset: 0x12951, size: 0x8, addend: 0x0, symName: __ZNSt3__16vectorI5OwnerNS_9allocatorIS1_EEE21_ConstructTransactionD2B7v160006Ev, symObjAddr: 0x10800, symBinAddr: 0x10001391C, symSize: 0x20 }
  - { offsetInCU: 0x1299D, offset: 0x1299D, size: 0x8, addend: 0x0, symName: __ZNKSt3__120__move_backward_loopINS_17_ClassicAlgPolicyEEclB7v160006IP5OwnerS5_S5_EENS_4pairIT_T1_EES7_T0_S8_, symObjAddr: 0x10ADC, symBinAddr: 0x100013BF8, symSize: 0xA4 }
  - { offsetInCU: 0x12A23, offset: 0x12A23, size: 0x8, addend: 0x0, symName: __ZNSt3__18_IterOpsINS_17_ClassicAlgPolicyEE4nextB7v160006IP5OwnerEET_S6_S6_, symObjAddr: 0x10C58, symBinAddr: 0x100013D74, symSize: 0x18 }
  - { offsetInCU: 0x12A59, offset: 0x12A59, size: 0x8, addend: 0x0, symName: __ZNSt3__18_IterOpsINS_17_ClassicAlgPolicyEE11__iter_moveB7v160006IRP5OwnerEENS_9enable_ifIXsr12is_referenceIDTdeclsr3stdE7declvalIRT_EEEEE5valueEDTclsr3stdE4movedeclsr3stdE7declvalIS9_EEEEE4typeEOS8_, symObjAddr: 0x10C70, symBinAddr: 0x100013D8C, symSize: 0x28 }
  - { offsetInCU: 0x12A85, offset: 0x12A85, size: 0x8, addend: 0x0, symName: __ZNSt3__18_IterOpsINS_17_ClassicAlgPolicyEE25__validate_iter_referenceB7v160006IRP5OwnerEEvv, symObjAddr: 0x10C98, symBinAddr: 0x100013DB4, symSize: 0x4 }
  - { offsetInCU: 0x12AA3, offset: 0x12AA3, size: 0x8, addend: 0x0, symName: __ZNSt3__118__unwrap_iter_implIP5OwnerLb1EE8__unwrapB7v160006ES2_, symObjAddr: 0x10C9C, symBinAddr: 0x100013DB8, symSize: 0x24 }
  - { offsetInCU: 0x12AC6, offset: 0x12AC6, size: 0x8, addend: 0x0, symName: __ZNSt3__14pairIP5OwnerS2_EC1B7v160006ERKS2_S5_, symObjAddr: 0x10CC0, symBinAddr: 0x100013DDC, symSize: 0x3C }
  - { offsetInCU: 0x12B0B, offset: 0x12B0B, size: 0x8, addend: 0x0, symName: __ZNSt3__14pairIP5OwnerS2_EC2B7v160006ERKS2_S5_, symObjAddr: 0x10CFC, symBinAddr: 0x100013E18, symSize: 0x34 }
  - { offsetInCU: 0x12B50, offset: 0x12B50, size: 0x8, addend: 0x0, symName: __ZNSt3__118__unwrap_iter_implIP5OwnerLb1EE8__rewrapB7v160006ES2_S2_, symObjAddr: 0x10D30, symBinAddr: 0x100013E4C, symSize: 0x58 }
  - { offsetInCU: 0x12B80, offset: 0x12B80, size: 0x8, addend: 0x0, symName: __ZNSt3__16vectorIP8SLandlotNS_9allocatorIS2_EEEaSB7v160006ERKS5_, symObjAddr: 0x10D88, symBinAddr: 0x100013EA4, symSize: 0x68 }
  - { offsetInCU: 0x12BB6, offset: 0x12BB6, size: 0x8, addend: 0x0, symName: __ZNSt3__16vectorIP8SLandlotNS_9allocatorIS2_EEE19__copy_assign_allocB7v160006ERKS5_, symObjAddr: 0x10DF0, symBinAddr: 0x100013F0C, symSize: 0x2C }
  - { offsetInCU: 0x12BE9, offset: 0x12BE9, size: 0x8, addend: 0x0, symName: __ZNSt3__16vectorIP8SLandlotNS_9allocatorIS2_EEE6assignIPS2_Li0EEEvT_S8_, symObjAddr: 0x10E1C, symBinAddr: 0x100013F38, symSize: 0x17C }
  - { offsetInCU: 0x12C87, offset: 0x12C87, size: 0x8, addend: 0x0, symName: __ZNSt3__16vectorIP8SLandlotNS_9allocatorIS2_EEE19__copy_assign_allocB7v160006ERKS5_NS_17integral_constantIbLb0EEE, symObjAddr: 0x10F98, symBinAddr: 0x1000140B4, symSize: 0x14 }
  - { offsetInCU: 0x12CC2, offset: 0x12CC2, size: 0x8, addend: 0x0, symName: __ZNSt3__16vectorIP8SLandlotNS_9allocatorIS2_EEE17__destruct_at_endB7v160006EPS2_, symObjAddr: 0x11068, symBinAddr: 0x100014184, symSize: 0x88 }
  - { offsetInCU: 0x12D04, offset: 0x12D04, size: 0x8, addend: 0x0, symName: __ZNSt3__16vectorIP8SLandlotNS_9allocatorIS2_EEE13__vdeallocateEv, symObjAddr: 0x110F0, symBinAddr: 0x10001420C, symSize: 0x8C }
  - { offsetInCU: 0x12D2A, offset: 0x12D2A, size: 0x8, addend: 0x0, symName: __ZNKSt3__16vectorIP8SLandlotNS_9allocatorIS2_EEE11__recommendB7v160006Em, symObjAddr: 0x1117C, symBinAddr: 0x100014298, symSize: 0xB4 }
  - { offsetInCU: 0x12DA1, offset: 0x12DA1, size: 0x8, addend: 0x0, symName: __ZNKSt3__114__copy_trivialclB7v160006IP8SLandlotS3_Li0EEENS_4pairIPT_PT0_EES6_S6_S8_, symObjAddr: 0x11450, symBinAddr: 0x10001456C, symSize: 0x48 }
  - { offsetInCU: 0x12E08, offset: 0x12E08, size: 0x8, addend: 0x0, symName: __ZNSt3__14pairIPP8SLandlotS3_EC1B7v160006ERKS3_S6_, symObjAddr: 0x1162C, symBinAddr: 0x100014748, symSize: 0x3C }
  - { offsetInCU: 0x12E4D, offset: 0x12E4D, size: 0x8, addend: 0x0, symName: __ZNSt3__14pairIPP8SLandlotS3_EC2B7v160006ERKS3_S6_, symObjAddr: 0x11668, symBinAddr: 0x100014784, symSize: 0x34 }
  - { offsetInCU: 0x12E92, offset: 0x12E92, size: 0x8, addend: 0x0, symName: __ZNSt3__118__unwrap_iter_implIPP8SLandlotLb1EE8__unwrapB7v160006ES3_, symObjAddr: 0x1169C, symBinAddr: 0x1000147B8, symSize: 0x24 }
  - { offsetInCU: 0x12EB5, offset: 0x12EB5, size: 0x8, addend: 0x0, symName: __ZNSt3__118__unwrap_iter_implIPP8SLandlotLb1EE8__rewrapB7v160006ES3_S3_, symObjAddr: 0x116C0, symBinAddr: 0x1000147DC, symSize: 0x50 }
  - { offsetInCU: 0x12EE6, offset: 0x12EE6, size: 0x8, addend: 0x0, symName: __ZNSt3__16vectorIP8SLandlotNS_9allocatorIS2_EEE27__invalidate_iterators_pastB7v160006EPS2_, symObjAddr: 0x11710, symBinAddr: 0x10001482C, symSize: 0x14 }
  - { offsetInCU: 0x12F1C, offset: 0x12F1C, size: 0x8, addend: 0x0, symName: __ZNKSt3__16vectorIP8SLandlotNS_9allocatorIS2_EEE17__annotate_shrinkB7v160006Em, symObjAddr: 0x11724, symBinAddr: 0x100014840, symSize: 0xB4 }
  - { offsetInCU: 0x12F50, offset: 0x12F50, size: 0x8, addend: 0x0, symName: __ZNSt3__16vectorIP8SLandlotNS_9allocatorIS2_EEE5clearB7v160006Ev, symObjAddr: 0x117D8, symBinAddr: 0x1000148F4, symSize: 0x68 }
  - { offsetInCU: 0x12F83, offset: 0x12F83, size: 0x8, addend: 0x0, symName: __ZNKSt3__16vectorI5OwnerNS_9allocatorIS1_EEE8max_sizeEv, symObjAddr: 0x118C0, symBinAddr: 0x1000149DC, symSize: 0x74 }
  - { offsetInCU: 0x12FAA, offset: 0x12FAA, size: 0x8, addend: 0x0, symName: __ZNKSt3__16vectorI5OwnerNS_9allocatorIS1_EEE20__throw_length_errorB7v160006Ev, symObjAddr: 0x11934, symBinAddr: 0x100014A50, symSize: 0x1C }
  - { offsetInCU: 0x12FD9, offset: 0x12FD9, size: 0x8, addend: 0x0, symName: __ZNSt3__116allocator_traitsINS_9allocatorI5OwnerEEE8max_sizeB7v160006IS3_vEEmRKS3_, symObjAddr: 0x11950, symBinAddr: 0x100014A6C, symSize: 0x24 }
  - { offsetInCU: 0x13007, offset: 0x13007, size: 0x8, addend: 0x0, symName: __ZNKSt3__16vectorI5OwnerNS_9allocatorIS1_EEE7__allocB7v160006Ev, symObjAddr: 0x11974, symBinAddr: 0x100014A90, symSize: 0x28 }
  - { offsetInCU: 0x1302C, offset: 0x1302C, size: 0x8, addend: 0x0, symName: __ZNKSt3__19allocatorI5OwnerE8max_sizeB7v160006Ev, symObjAddr: 0x1199C, symBinAddr: 0x100014AB8, symSize: 0x18 }
  - { offsetInCU: 0x13051, offset: 0x13051, size: 0x8, addend: 0x0, symName: __ZNKSt3__117__compressed_pairIP5OwnerNS_9allocatorIS1_EEE6secondB7v160006Ev, symObjAddr: 0x119B4, symBinAddr: 0x100014AD0, symSize: 0x24 }
  - { offsetInCU: 0x13076, offset: 0x13076, size: 0x8, addend: 0x0, symName: __ZNKSt3__122__compressed_pair_elemINS_9allocatorI5OwnerEELi1ELb1EE5__getB7v160006Ev, symObjAddr: 0x119D8, symBinAddr: 0x100014AF4, symSize: 0x14 }
  - { offsetInCU: 0x1309B, offset: 0x1309B, size: 0x8, addend: 0x0, symName: __ZNSt3__114__split_bufferI5OwnerRNS_9allocatorIS1_EEEC2EmmS4_, symObjAddr: 0x119EC, symBinAddr: 0x100014B08, symSize: 0xE0 }
  - { offsetInCU: 0x1310D, offset: 0x1310D, size: 0x8, addend: 0x0, symName: __ZNSt3__117__compressed_pairIP5OwnerRNS_9allocatorIS1_EEEC1B7v160006IDnS5_EEOT_OT0_, symObjAddr: 0x11ACC, symBinAddr: 0x100014BE8, symSize: 0x3C }
  - { offsetInCU: 0x13164, offset: 0x13164, size: 0x8, addend: 0x0, symName: __ZNSt3__114__split_bufferI5OwnerRNS_9allocatorIS1_EEE7__allocB7v160006Ev, symObjAddr: 0x11B48, symBinAddr: 0x100014C64, symSize: 0x28 }
  - { offsetInCU: 0x13189, offset: 0x13189, size: 0x8, addend: 0x0, symName: __ZNSt3__114__split_bufferI5OwnerRNS_9allocatorIS1_EEE9__end_capB7v160006Ev, symObjAddr: 0x11B70, symBinAddr: 0x100014C8C, symSize: 0x28 }
  - { offsetInCU: 0x131AE, offset: 0x131AE, size: 0x8, addend: 0x0, symName: __ZNSt3__117__compressed_pairIP5OwnerRNS_9allocatorIS1_EEEC2B7v160006IDnS5_EEOT_OT0_, symObjAddr: 0x11B98, symBinAddr: 0x100014CB4, symSize: 0x48 }
  - { offsetInCU: 0x13205, offset: 0x13205, size: 0x8, addend: 0x0, symName: __ZNSt3__122__compressed_pair_elemIRNS_9allocatorI5OwnerEELi1ELb0EEC2B7v160006IS4_vEEOT_, symObjAddr: 0x11BE0, symBinAddr: 0x100014CFC, symSize: 0x20 }
  - { offsetInCU: 0x13246, offset: 0x13246, size: 0x8, addend: 0x0, symName: __ZNSt3__19allocatorI5OwnerE8allocateB7v160006Em, symObjAddr: 0x11C00, symBinAddr: 0x100014D1C, symSize: 0x8C }
  - { offsetInCU: 0x13279, offset: 0x13279, size: 0x8, addend: 0x0, symName: __ZNSt3__117__compressed_pairIP5OwnerRNS_9allocatorIS1_EEE6secondB7v160006Ev, symObjAddr: 0x11C8C, symBinAddr: 0x100014DA8, symSize: 0x28 }
  - { offsetInCU: 0x1329E, offset: 0x1329E, size: 0x8, addend: 0x0, symName: __ZNSt3__122__compressed_pair_elemIRNS_9allocatorI5OwnerEELi1ELb0EE5__getB7v160006Ev, symObjAddr: 0x11CB4, symBinAddr: 0x100014DD0, symSize: 0x18 }
  - { offsetInCU: 0x132C3, offset: 0x132C3, size: 0x8, addend: 0x0, symName: __ZNSt3__117__compressed_pairIP5OwnerRNS_9allocatorIS1_EEE5firstB7v160006Ev, symObjAddr: 0x11CCC, symBinAddr: 0x100014DE8, symSize: 0x24 }
  - { offsetInCU: 0x132E7, offset: 0x132E7, size: 0x8, addend: 0x0, symName: __ZNSt3__114__split_bufferI5OwnerRNS_9allocatorIS1_EEE18__construct_at_endINS_13move_iteratorIPS1_EEEENS_9enable_ifIXsr27__is_cpp17_forward_iteratorIT_EE5valueEvE4typeESB_SB_, symObjAddr: 0x11D30, symBinAddr: 0x100014E4C, symSize: 0x104 }
  - { offsetInCU: 0x13342, offset: 0x13342, size: 0x8, addend: 0x0, symName: __ZNSt3__113move_iteratorIP5OwnerEC1B7v160006ES2_, symObjAddr: 0x11E34, symBinAddr: 0x100014F50, symSize: 0x34 }
  - { offsetInCU: 0x13383, offset: 0x13383, size: 0x8, addend: 0x0, symName: __ZNKSt3__111__move_loopINS_17_ClassicAlgPolicyEEclB7v160006IP5OwnerS5_S5_EENS_4pairIT_T1_EES7_T0_S8_, symObjAddr: 0x120C0, symBinAddr: 0x1000151DC, symSize: 0x90 }
  - { offsetInCU: 0x133F7, offset: 0x133F7, size: 0x8, addend: 0x0, symName: __ZNSt3__114__split_bufferI5OwnerRNS_9allocatorIS1_EEE21_ConstructTransactionC1B7v160006EPPS1_m, symObjAddr: 0x1218C, symBinAddr: 0x1000152A8, symSize: 0x3C }
  - { offsetInCU: 0x1343C, offset: 0x1343C, size: 0x8, addend: 0x0, symName: __ZNKSt3__113move_iteratorIP5OwnerEdeB7v160006Ev, symObjAddr: 0x121C8, symBinAddr: 0x1000152E4, symSize: 0x18 }
  - { offsetInCU: 0x13461, offset: 0x13461, size: 0x8, addend: 0x0, symName: __ZNSt3__113move_iteratorIP5OwnerEppB7v160006Ev, symObjAddr: 0x121E0, symBinAddr: 0x1000152FC, symSize: 0x20 }
  - { offsetInCU: 0x13486, offset: 0x13486, size: 0x8, addend: 0x0, symName: __ZNSt3__114__split_bufferI5OwnerRNS_9allocatorIS1_EEE21_ConstructTransactionD1B7v160006Ev, symObjAddr: 0x12200, symBinAddr: 0x10001531C, symSize: 0x2C }
  - { offsetInCU: 0x134AF, offset: 0x134AF, size: 0x8, addend: 0x0, symName: __ZNKSt3__113move_iteratorIP5OwnerE4baseB7v160006Ev, symObjAddr: 0x122A4, symBinAddr: 0x1000153C0, symSize: 0x18 }
  - { offsetInCU: 0x134D4, offset: 0x134D4, size: 0x8, addend: 0x0, symName: __ZNSt3__114__split_bufferI5OwnerRNS_9allocatorIS1_EEE21_ConstructTransactionC2B7v160006EPPS1_m, symObjAddr: 0x122BC, symBinAddr: 0x1000153D8, symSize: 0x4C }
  - { offsetInCU: 0x13519, offset: 0x13519, size: 0x8, addend: 0x0, symName: __ZNSt3__114__split_bufferI5OwnerRNS_9allocatorIS1_EEE21_ConstructTransactionD2B7v160006Ev, symObjAddr: 0x12308, symBinAddr: 0x100015424, symSize: 0x20 }
  - { offsetInCU: 0x13542, offset: 0x13542, size: 0x8, addend: 0x0, symName: __ZNSt3__113move_iteratorIP5OwnerEC2B7v160006ES2_, symObjAddr: 0x12328, symBinAddr: 0x100015444, symSize: 0x20 }
  - { offsetInCU: 0x13579, offset: 0x13579, size: 0x8, addend: 0x0, symName: __ZNSt3__116reverse_iteratorIP5OwnerEC1B7v160006ES2_, symObjAddr: 0x1247C, symBinAddr: 0x100015598, symSize: 0x34 }
  - { offsetInCU: 0x135B0, offset: 0x135B0, size: 0x8, addend: 0x0, symName: __ZNKSt3__116reverse_iteratorIP5OwnerE4baseB7v160006Ev, symObjAddr: 0x124B0, symBinAddr: 0x1000155CC, symSize: 0x18 }
  - { offsetInCU: 0x135D5, offset: 0x135D5, size: 0x8, addend: 0x0, symName: __ZNKSt3__16vectorI5OwnerNS_9allocatorIS1_EEE14__annotate_newB7v160006Em, symObjAddr: 0x125C4, symBinAddr: 0x1000156E0, symSize: 0xC8 }
  - { offsetInCU: 0x13609, offset: 0x13609, size: 0x8, addend: 0x0, symName: __ZNSt3__129_AllocatorDestroyRangeReverseINS_9allocatorI5OwnerEENS_16reverse_iteratorIPS2_EEEC1B7v160006ERS3_RS6_S9_, symObjAddr: 0x126E8, symBinAddr: 0x100015804, symSize: 0x44 }
  - { offsetInCU: 0x1365F, offset: 0x1365F, size: 0x8, addend: 0x0, symName: __ZNSt3__116allocator_traitsINS_9allocatorI5OwnerEEE9constructB7v160006IS2_JRKS2_EvEEvRS3_PT_DpOT0_, symObjAddr: 0x12774, symBinAddr: 0x100015890, symSize: 0x34 }
  - { offsetInCU: 0x136B6, offset: 0x136B6, size: 0x8, addend: 0x0, symName: __ZNKSt3__116reverse_iteratorIP5OwnerEdeB7v160006Ev, symObjAddr: 0x127CC, symBinAddr: 0x1000158E8, symSize: 0x28 }
  - { offsetInCU: 0x136E9, offset: 0x136E9, size: 0x8, addend: 0x0, symName: __ZNSt3__116reverse_iteratorIP5OwnerEppB7v160006Ev, symObjAddr: 0x127F4, symBinAddr: 0x100015910, symSize: 0x20 }
  - { offsetInCU: 0x1370E, offset: 0x1370E, size: 0x8, addend: 0x0, symName: __ZNSt3__128__exception_guard_exceptionsINS_29_AllocatorDestroyRangeReverseINS_9allocatorI5OwnerEENS_16reverse_iteratorIPS3_EEEEE10__completeB7v160006Ev, symObjAddr: 0x12814, symBinAddr: 0x100015930, symSize: 0x1C }
  - { offsetInCU: 0x13733, offset: 0x13733, size: 0x8, addend: 0x0, symName: __ZNSt3__128__exception_guard_exceptionsINS_29_AllocatorDestroyRangeReverseINS_9allocatorI5OwnerEENS_16reverse_iteratorIPS3_EEEEED1B7v160006Ev, symObjAddr: 0x12830, symBinAddr: 0x10001594C, symSize: 0x2C }
  - { offsetInCU: 0x1375C, offset: 0x1375C, size: 0x8, addend: 0x0, symName: __ZNSt3__128__exception_guard_exceptionsINS_29_AllocatorDestroyRangeReverseINS_9allocatorI5OwnerEENS_16reverse_iteratorIPS3_EEEEEC1B7v160006ES8_, symObjAddr: 0x1285C, symBinAddr: 0x100015978, symSize: 0x34 }
  - { offsetInCU: 0x13794, offset: 0x13794, size: 0x8, addend: 0x0, symName: __ZNSt3__128__exception_guard_exceptionsINS_29_AllocatorDestroyRangeReverseINS_9allocatorI5OwnerEENS_16reverse_iteratorIPS3_EEEEEC2B7v160006ES8_, symObjAddr: 0x12890, symBinAddr: 0x1000159AC, symSize: 0x30 }
  - { offsetInCU: 0x137CC, offset: 0x137CC, size: 0x8, addend: 0x0, symName: __ZNSt3__129_AllocatorDestroyRangeReverseINS_9allocatorI5OwnerEENS_16reverse_iteratorIPS2_EEEC2B7v160006ERS3_RS6_S9_, symObjAddr: 0x128C0, symBinAddr: 0x1000159DC, symSize: 0x38 }
  - { offsetInCU: 0x13822, offset: 0x13822, size: 0x8, addend: 0x0, symName: __ZNSt3__19allocatorI5OwnerE9constructB7v160006IS1_JRKS1_EEEvPT_DpOT0_, symObjAddr: 0x128F8, symBinAddr: 0x100015A14, symSize: 0x30 }
  - { offsetInCU: 0x1387C, offset: 0x1387C, size: 0x8, addend: 0x0, symName: __ZNSt3__119__to_address_helperINS_16reverse_iteratorIP5OwnerEEvE6__callB7v160006ERKS4_, symObjAddr: 0x12928, symBinAddr: 0x100015A44, symSize: 0x4C }
  - { offsetInCU: 0x1389F, offset: 0x1389F, size: 0x8, addend: 0x0, symName: __ZNKSt3__116reverse_iteratorIP5OwnerEptB7v160006Ev, symObjAddr: 0x12974, symBinAddr: 0x100015A90, symSize: 0x24 }
  - { offsetInCU: 0x138C4, offset: 0x138C4, size: 0x8, addend: 0x0, symName: __ZNSt3__128__exception_guard_exceptionsINS_29_AllocatorDestroyRangeReverseINS_9allocatorI5OwnerEENS_16reverse_iteratorIPS3_EEEEED2B7v160006Ev, symObjAddr: 0x12998, symBinAddr: 0x100015AB4, symSize: 0x48 }
  - { offsetInCU: 0x138ED, offset: 0x138ED, size: 0x8, addend: 0x0, symName: __ZNKSt3__129_AllocatorDestroyRangeReverseINS_9allocatorI5OwnerEENS_16reverse_iteratorIPS2_EEEclB7v160006Ev, symObjAddr: 0x129E0, symBinAddr: 0x100015AFC, symSize: 0xB4 }
  - { offsetInCU: 0x13913, offset: 0x13913, size: 0x8, addend: 0x0, symName: __ZNSt3__116reverse_iteratorINS0_IP5OwnerEEEC1B7v160006ES3_, symObjAddr: 0x12B04, symBinAddr: 0x100015C20, symSize: 0x3C }
  - { offsetInCU: 0x1394A, offset: 0x1394A, size: 0x8, addend: 0x0, symName: __ZNSt3__116reverse_iteratorINS0_IP5OwnerEEEppB7v160006Ev, symObjAddr: 0x12BC4, symBinAddr: 0x100015CE0, symSize: 0x30 }
  - { offsetInCU: 0x1396F, offset: 0x1396F, size: 0x8, addend: 0x0, symName: __ZNKSt3__116reverse_iteratorINS0_IP5OwnerEEE4baseB7v160006Ev, symObjAddr: 0x12BF4, symBinAddr: 0x100015D10, symSize: 0x24 }
  - { offsetInCU: 0x13999, offset: 0x13999, size: 0x8, addend: 0x0, symName: __ZNSt3__119__to_address_helperINS_16reverse_iteratorINS1_IP5OwnerEEEEvE6__callB7v160006ERKS5_, symObjAddr: 0x12C18, symBinAddr: 0x100015D34, symSize: 0x4C }
  - { offsetInCU: 0x139BC, offset: 0x139BC, size: 0x8, addend: 0x0, symName: __ZNKSt3__116reverse_iteratorINS0_IP5OwnerEEEptB7v160006Ev, symObjAddr: 0x12C64, symBinAddr: 0x100015D80, symSize: 0x24 }
  - { offsetInCU: 0x139E1, offset: 0x139E1, size: 0x8, addend: 0x0, symName: __ZNKSt3__116reverse_iteratorINS0_IP5OwnerEEEdeB7v160006Ev, symObjAddr: 0x12C88, symBinAddr: 0x100015DA4, symSize: 0x34 }
  - { offsetInCU: 0x13A14, offset: 0x13A14, size: 0x8, addend: 0x0, symName: __ZNSt3__116reverse_iteratorIP5OwnerEmmB7v160006Ev, symObjAddr: 0x12CBC, symBinAddr: 0x100015DD8, symSize: 0x20 }
  - { offsetInCU: 0x13A39, offset: 0x13A39, size: 0x8, addend: 0x0, symName: __ZNSt3__116reverse_iteratorINS0_IP5OwnerEEEC2B7v160006ES3_, symObjAddr: 0x12CDC, symBinAddr: 0x100015DF8, symSize: 0x2C }
  - { offsetInCU: 0x13A70, offset: 0x13A70, size: 0x8, addend: 0x0, symName: __ZNSt3__116reverse_iteratorIP5OwnerEC2B7v160006ES2_, symObjAddr: 0x12D08, symBinAddr: 0x100015E24, symSize: 0x28 }
  - { offsetInCU: 0x13AA7, offset: 0x13AA7, size: 0x8, addend: 0x0, symName: __ZNSt3__129_AllocatorDestroyRangeReverseINS_9allocatorI5OwnerEEPS2_EC1B7v160006ERS3_RS4_S7_, symObjAddr: 0x12D7C, symBinAddr: 0x100015E98, symSize: 0x44 }
  - { offsetInCU: 0x13AFD, offset: 0x13AFD, size: 0x8, addend: 0x0, symName: __ZNSt3__128__exception_guard_exceptionsINS_29_AllocatorDestroyRangeReverseINS_9allocatorI5OwnerEEPS3_EEE10__completeB7v160006Ev, symObjAddr: 0x12DC0, symBinAddr: 0x100015EDC, symSize: 0x1C }
  - { offsetInCU: 0x13B22, offset: 0x13B22, size: 0x8, addend: 0x0, symName: __ZNSt3__128__exception_guard_exceptionsINS_29_AllocatorDestroyRangeReverseINS_9allocatorI5OwnerEEPS3_EEED1B7v160006Ev, symObjAddr: 0x12DDC, symBinAddr: 0x100015EF8, symSize: 0x2C }
  - { offsetInCU: 0x13B4B, offset: 0x13B4B, size: 0x8, addend: 0x0, symName: __ZNSt3__128__exception_guard_exceptionsINS_29_AllocatorDestroyRangeReverseINS_9allocatorI5OwnerEEPS3_EEEC1B7v160006ES6_, symObjAddr: 0x12E08, symBinAddr: 0x100015F24, symSize: 0x34 }
  - { offsetInCU: 0x13B83, offset: 0x13B83, size: 0x8, addend: 0x0, symName: __ZNSt3__128__exception_guard_exceptionsINS_29_AllocatorDestroyRangeReverseINS_9allocatorI5OwnerEEPS3_EEEC2B7v160006ES6_, symObjAddr: 0x12E3C, symBinAddr: 0x100015F58, symSize: 0x30 }
  - { offsetInCU: 0x13BBB, offset: 0x13BBB, size: 0x8, addend: 0x0, symName: __ZNSt3__129_AllocatorDestroyRangeReverseINS_9allocatorI5OwnerEEPS2_EC2B7v160006ERS3_RS4_S7_, symObjAddr: 0x12E6C, symBinAddr: 0x100015F88, symSize: 0x38 }
  - { offsetInCU: 0x13C11, offset: 0x13C11, size: 0x8, addend: 0x0, symName: __ZNSt3__128__exception_guard_exceptionsINS_29_AllocatorDestroyRangeReverseINS_9allocatorI5OwnerEEPS3_EEED2B7v160006Ev, symObjAddr: 0x12EA4, symBinAddr: 0x100015FC0, symSize: 0x48 }
  - { offsetInCU: 0x13C3A, offset: 0x13C3A, size: 0x8, addend: 0x0, symName: __ZNKSt3__129_AllocatorDestroyRangeReverseINS_9allocatorI5OwnerEEPS2_EclB7v160006Ev, symObjAddr: 0x12EEC, symBinAddr: 0x100016008, symSize: 0x68 }
  - { offsetInCU: 0x13C5F, offset: 0x13C5F, size: 0x8, addend: 0x0, symName: __ZNSt3__114__split_bufferI5OwnerRNS_9allocatorIS1_EEED2Ev, symObjAddr: 0x12FC4, symBinAddr: 0x1000160E0, symSize: 0x80 }
  - { offsetInCU: 0x13C8A, offset: 0x13C8A, size: 0x8, addend: 0x0, symName: __ZNSt3__114__split_bufferI5OwnerRNS_9allocatorIS1_EEE5clearB7v160006Ev, symObjAddr: 0x13044, symBinAddr: 0x100016160, symSize: 0x28 }
  - { offsetInCU: 0x13CAF, offset: 0x13CAF, size: 0x8, addend: 0x0, symName: __ZNKSt3__114__split_bufferI5OwnerRNS_9allocatorIS1_EEE8capacityB7v160006Ev, symObjAddr: 0x1306C, symBinAddr: 0x100016188, symSize: 0x40 }
  - { offsetInCU: 0x13CD4, offset: 0x13CD4, size: 0x8, addend: 0x0, symName: __ZNSt3__114__split_bufferI5OwnerRNS_9allocatorIS1_EEE17__destruct_at_endB7v160006EPS1_, symObjAddr: 0x130AC, symBinAddr: 0x1000161C8, symSize: 0x2C }
  - { offsetInCU: 0x13D06, offset: 0x13D06, size: 0x8, addend: 0x0, symName: __ZNSt3__114__split_bufferI5OwnerRNS_9allocatorIS1_EEE17__destruct_at_endB7v160006EPS1_NS_17integral_constantIbLb0EEE, symObjAddr: 0x130D8, symBinAddr: 0x1000161F4, symSize: 0x94 }
  - { offsetInCU: 0x13D45, offset: 0x13D45, size: 0x8, addend: 0x0, symName: __ZNKSt3__114__split_bufferI5OwnerRNS_9allocatorIS1_EEE9__end_capB7v160006Ev, symObjAddr: 0x1316C, symBinAddr: 0x100016288, symSize: 0x28 }
  - { offsetInCU: 0x13D6A, offset: 0x13D6A, size: 0x8, addend: 0x0, symName: __ZNKSt3__117__compressed_pairIP5OwnerRNS_9allocatorIS1_EEE5firstB7v160006Ev, symObjAddr: 0x13194, symBinAddr: 0x1000162B0, symSize: 0x24 }
  - { offsetInCU: 0x13D8F, offset: 0x13D8F, size: 0x8, addend: 0x0, symName: __ZNSt3__16vectorIP8SLandlotNS_9allocatorIS2_EEE22__construct_one_at_endB7v160006IJRKS2_EEEvDpOT_, symObjAddr: 0x13200, symBinAddr: 0x10001631C, symSize: 0x98 }
  - { offsetInCU: 0x13DDC, offset: 0x13DDC, size: 0x8, addend: 0x0, symName: __ZNSt3__16vectorIP8SLandlotNS_9allocatorIS2_EEE12__move_rangeEPS2_S6_S6_, symObjAddr: 0x13298, symBinAddr: 0x1000163B4, symSize: 0x134 }
  - { offsetInCU: 0x13E97, offset: 0x13E97, size: 0x8, addend: 0x0, symName: __ZNSt3__114pointer_traitsIPKP8SLandlotE10pointer_toB7v160006ERS3_, symObjAddr: 0x133CC, symBinAddr: 0x1000164E8, symSize: 0x14 }
  - { offsetInCU: 0x13EBA, offset: 0x13EBA, size: 0x8, addend: 0x0, symName: __ZNSt3__114__split_bufferIP8SLandlotRNS_9allocatorIS2_EEEC1EmmS5_, symObjAddr: 0x133E0, symBinAddr: 0x1000164FC, symSize: 0x44 }
  - { offsetInCU: 0x13F0E, offset: 0x13F0E, size: 0x8, addend: 0x0, symName: __ZNSt3__114__split_bufferIP8SLandlotRNS_9allocatorIS2_EEE9push_backB7v160006ERKS2_, symObjAddr: 0x13424, symBinAddr: 0x100016540, symSize: 0x270 }
  - { offsetInCU: 0x13F86, offset: 0x13F86, size: 0x8, addend: 0x0, symName: __ZNSt3__114__split_bufferIP8SLandlotRNS_9allocatorIS2_EEED1Ev, symObjAddr: 0x137E8, symBinAddr: 0x100016904, symSize: 0x2C }
  - { offsetInCU: 0x13FB1, offset: 0x13FB1, size: 0x8, addend: 0x0, symName: __ZNSt3__116allocator_traitsINS_9allocatorIP8SLandlotEEE9constructB7v160006IS3_JRKS3_EvEEvRS4_PT_DpOT0_, symObjAddr: 0x13814, symBinAddr: 0x100016930, symSize: 0x34 }
  - { offsetInCU: 0x14008, offset: 0x14008, size: 0x8, addend: 0x0, symName: __ZNSt3__19allocatorIP8SLandlotE9constructB7v160006IS2_JRKS2_EEEvPT_DpOT0_, symObjAddr: 0x13848, symBinAddr: 0x100016964, symSize: 0x28 }
  - { offsetInCU: 0x1405D, offset: 0x1405D, size: 0x8, addend: 0x0, symName: __ZNSt3__116allocator_traitsINS_9allocatorIP8SLandlotEEE9constructB7v160006IS3_JS3_EvEEvRS4_PT_DpOT0_, symObjAddr: 0x13870, symBinAddr: 0x10001698C, symSize: 0x34 }
  - { offsetInCU: 0x140B4, offset: 0x140B4, size: 0x8, addend: 0x0, symName: __ZNSt3__19allocatorIP8SLandlotE9constructB7v160006IS2_JS2_EEEvPT_DpOT0_, symObjAddr: 0x138E4, symBinAddr: 0x100016A00, symSize: 0x28 }
  - { offsetInCU: 0x14113, offset: 0x14113, size: 0x8, addend: 0x0, symName: __ZNKSt3__123__move_backward_trivialclB7v160006IP8SLandlotS3_Li0EEENS_4pairIPT_PT0_EES6_S6_S8_, symObjAddr: 0x13A58, symBinAddr: 0x100016B74, symSize: 0x48 }
  - { offsetInCU: 0x1417A, offset: 0x1417A, size: 0x8, addend: 0x0, symName: __ZNSt3__114__split_bufferIP8SLandlotRNS_9allocatorIS2_EEEC2EmmS5_, symObjAddr: 0x13B6C, symBinAddr: 0x100016C88, symSize: 0xD4 }
  - { offsetInCU: 0x141EC, offset: 0x141EC, size: 0x8, addend: 0x0, symName: __ZNSt3__117__compressed_pairIPP8SLandlotRNS_9allocatorIS2_EEEC1B7v160006IDnS6_EEOT_OT0_, symObjAddr: 0x13C40, symBinAddr: 0x100016D5C, symSize: 0x3C }
  - { offsetInCU: 0x14243, offset: 0x14243, size: 0x8, addend: 0x0, symName: __ZNSt3__114__split_bufferIP8SLandlotRNS_9allocatorIS2_EEE7__allocB7v160006Ev, symObjAddr: 0x13C7C, symBinAddr: 0x100016D98, symSize: 0x28 }
  - { offsetInCU: 0x14268, offset: 0x14268, size: 0x8, addend: 0x0, symName: __ZNSt3__114__split_bufferIP8SLandlotRNS_9allocatorIS2_EEE9__end_capB7v160006Ev, symObjAddr: 0x13CA4, symBinAddr: 0x100016DC0, symSize: 0x28 }
  - { offsetInCU: 0x1428D, offset: 0x1428D, size: 0x8, addend: 0x0, symName: __ZNSt3__117__compressed_pairIPP8SLandlotRNS_9allocatorIS2_EEEC2B7v160006IDnS6_EEOT_OT0_, symObjAddr: 0x13CCC, symBinAddr: 0x100016DE8, symSize: 0x48 }
  - { offsetInCU: 0x142E4, offset: 0x142E4, size: 0x8, addend: 0x0, symName: __ZNSt3__122__compressed_pair_elemIRNS_9allocatorIP8SLandlotEELi1ELb0EEC2B7v160006IS5_vEEOT_, symObjAddr: 0x13D14, symBinAddr: 0x100016E30, symSize: 0x20 }
  - { offsetInCU: 0x14325, offset: 0x14325, size: 0x8, addend: 0x0, symName: __ZNSt3__117__compressed_pairIPP8SLandlotRNS_9allocatorIS2_EEE6secondB7v160006Ev, symObjAddr: 0x13D34, symBinAddr: 0x100016E50, symSize: 0x28 }
  - { offsetInCU: 0x1434A, offset: 0x1434A, size: 0x8, addend: 0x0, symName: __ZNSt3__122__compressed_pair_elemIRNS_9allocatorIP8SLandlotEELi1ELb0EE5__getB7v160006Ev, symObjAddr: 0x13D5C, symBinAddr: 0x100016E78, symSize: 0x18 }
  - { offsetInCU: 0x1436F, offset: 0x1436F, size: 0x8, addend: 0x0, symName: __ZNSt3__117__compressed_pairIPP8SLandlotRNS_9allocatorIS2_EEE5firstB7v160006Ev, symObjAddr: 0x13D74, symBinAddr: 0x100016E90, symSize: 0x24 }
  - { offsetInCU: 0x14393, offset: 0x14393, size: 0x8, addend: 0x0, symName: __ZNSt3__114__split_bufferIP8SLandlotRNS_9allocatorIS2_EEE18__construct_at_endINS_13move_iteratorIPS2_EEEENS_9enable_ifIXsr27__is_cpp17_forward_iteratorIT_EE5valueEvE4typeESC_SC_, symObjAddr: 0x13DD8, symBinAddr: 0x100016EF4, symSize: 0x104 }
  - { offsetInCU: 0x143EE, offset: 0x143EE, size: 0x8, addend: 0x0, symName: __ZNSt3__113move_iteratorIPP8SLandlotEC1B7v160006ES3_, symObjAddr: 0x13EDC, symBinAddr: 0x100016FF8, symSize: 0x34 }
  - { offsetInCU: 0x1442F, offset: 0x1442F, size: 0x8, addend: 0x0, symName: __ZNKSt3__114__move_trivialclB7v160006IP8SLandlotS3_Li0EEENS_4pairIPT_PT0_EES6_S6_S8_, symObjAddr: 0x14098, symBinAddr: 0x1000171B4, symSize: 0x48 }
  - { offsetInCU: 0x144A0, offset: 0x144A0, size: 0x8, addend: 0x0, symName: __ZNSt3__114__split_bufferIP8SLandlotRNS_9allocatorIS2_EEE21_ConstructTransactionC1B7v160006EPPS2_m, symObjAddr: 0x1411C, symBinAddr: 0x100017238, symSize: 0x3C }
  - { offsetInCU: 0x144E5, offset: 0x144E5, size: 0x8, addend: 0x0, symName: __ZNKSt3__113move_iteratorIPP8SLandlotEdeB7v160006Ev, symObjAddr: 0x14158, symBinAddr: 0x100017274, symSize: 0x18 }
  - { offsetInCU: 0x1450A, offset: 0x1450A, size: 0x8, addend: 0x0, symName: __ZNSt3__113move_iteratorIPP8SLandlotEppB7v160006Ev, symObjAddr: 0x14170, symBinAddr: 0x10001728C, symSize: 0x20 }
  - { offsetInCU: 0x1452F, offset: 0x1452F, size: 0x8, addend: 0x0, symName: __ZNSt3__114__split_bufferIP8SLandlotRNS_9allocatorIS2_EEE21_ConstructTransactionD1B7v160006Ev, symObjAddr: 0x14190, symBinAddr: 0x1000172AC, symSize: 0x2C }
  - { offsetInCU: 0x14558, offset: 0x14558, size: 0x8, addend: 0x0, symName: __ZNKSt3__113move_iteratorIPP8SLandlotE4baseB7v160006Ev, symObjAddr: 0x14234, symBinAddr: 0x100017350, symSize: 0x18 }
  - { offsetInCU: 0x1457D, offset: 0x1457D, size: 0x8, addend: 0x0, symName: __ZNSt3__114__split_bufferIP8SLandlotRNS_9allocatorIS2_EEE21_ConstructTransactionC2B7v160006EPPS2_m, symObjAddr: 0x1424C, symBinAddr: 0x100017368, symSize: 0x44 }
  - { offsetInCU: 0x145C2, offset: 0x145C2, size: 0x8, addend: 0x0, symName: __ZNSt3__114__split_bufferIP8SLandlotRNS_9allocatorIS2_EEE21_ConstructTransactionD2B7v160006Ev, symObjAddr: 0x14290, symBinAddr: 0x1000173AC, symSize: 0x20 }
  - { offsetInCU: 0x145EB, offset: 0x145EB, size: 0x8, addend: 0x0, symName: __ZNSt3__113move_iteratorIPP8SLandlotEC2B7v160006ES3_, symObjAddr: 0x142B0, symBinAddr: 0x1000173CC, symSize: 0x20 }
  - { offsetInCU: 0x1463B, offset: 0x1463B, size: 0x8, addend: 0x0, symName: __ZNKSt3__111__move_loopINS_17_ClassicAlgPolicyEEclB7v160006INS_16reverse_iteratorIPP8SLandlotEES8_S8_EENS_4pairIT_T1_EESA_T0_SB_, symObjAddr: 0x14790, symBinAddr: 0x1000178AC, symSize: 0xA0 }
  - { offsetInCU: 0x146A5, offset: 0x146A5, size: 0x8, addend: 0x0, symName: __ZNSt3__18_IterOpsINS_17_ClassicAlgPolicyEE11__iter_moveB7v160006IRNS_16reverse_iteratorIPP8SLandlotEEEENS_9enable_ifIXsr12is_referenceIDTdeclsr3stdE7declvalIRT_EEEEE5valueEDTclsr3stdE4movedeclsr3stdE7declvalISC_EEEEE4typeEOSB_, symObjAddr: 0x14990, symBinAddr: 0x100017AAC, symSize: 0x28 }
  - { offsetInCU: 0x146D1, offset: 0x146D1, size: 0x8, addend: 0x0, symName: __ZNSt3__18_IterOpsINS_17_ClassicAlgPolicyEE25__validate_iter_referenceB7v160006IRNS_16reverse_iteratorIPP8SLandlotEEEEvv, symObjAddr: 0x149B8, symBinAddr: 0x100017AD4, symSize: 0x4 }
  - { offsetInCU: 0x146EF, offset: 0x146EF, size: 0x8, addend: 0x0, symName: __ZNSt3__118__unwrap_iter_implINS_16reverse_iteratorIPP8SLandlotEELb0EE8__unwrapB7v160006ES5_, symObjAddr: 0x149BC, symBinAddr: 0x100017AD8, symSize: 0x24 }
  - { offsetInCU: 0x14712, offset: 0x14712, size: 0x8, addend: 0x0, symName: __ZNSt3__14pairINS_16reverse_iteratorIPP8SLandlotEES5_EC1B7v160006ERKS5_S8_, symObjAddr: 0x149E0, symBinAddr: 0x100017AFC, symSize: 0x3C }
  - { offsetInCU: 0x14757, offset: 0x14757, size: 0x8, addend: 0x0, symName: __ZNSt3__14pairINS_16reverse_iteratorIPP8SLandlotEES5_EC2B7v160006ERKS5_S8_, symObjAddr: 0x14A1C, symBinAddr: 0x100017B38, symSize: 0x34 }
  - { offsetInCU: 0x1479C, offset: 0x1479C, size: 0x8, addend: 0x0, symName: __ZNSt3__118__unwrap_iter_implINS_16reverse_iteratorIPP8SLandlotEELb0EE8__rewrapB7v160006ES5_S5_, symObjAddr: 0x14A50, symBinAddr: 0x100017B6C, symSize: 0x2C }
  - { offsetInCU: 0x147C9, offset: 0x147C9, size: 0x8, addend: 0x0, symName: __ZNSt3__114__split_bufferIP8SLandlotRNS_9allocatorIS2_EEED2Ev, symObjAddr: 0x14A7C, symBinAddr: 0x100017B98, symSize: 0x80 }
  - { offsetInCU: 0x147F4, offset: 0x147F4, size: 0x8, addend: 0x0, symName: __ZNSt3__114__split_bufferIP8SLandlotRNS_9allocatorIS2_EEE5clearB7v160006Ev, symObjAddr: 0x14AFC, symBinAddr: 0x100017C18, symSize: 0x28 }
  - { offsetInCU: 0x14819, offset: 0x14819, size: 0x8, addend: 0x0, symName: __ZNKSt3__114__split_bufferIP8SLandlotRNS_9allocatorIS2_EEE8capacityB7v160006Ev, symObjAddr: 0x14B24, symBinAddr: 0x100017C40, symSize: 0x40 }
  - { offsetInCU: 0x1483E, offset: 0x1483E, size: 0x8, addend: 0x0, symName: __ZNSt3__114__split_bufferIP8SLandlotRNS_9allocatorIS2_EEE17__destruct_at_endB7v160006EPS2_, symObjAddr: 0x14B64, symBinAddr: 0x100017C80, symSize: 0x2C }
  - { offsetInCU: 0x14870, offset: 0x14870, size: 0x8, addend: 0x0, symName: __ZNSt3__114__split_bufferIP8SLandlotRNS_9allocatorIS2_EEE17__destruct_at_endB7v160006EPS2_NS_17integral_constantIbLb0EEE, symObjAddr: 0x14B90, symBinAddr: 0x100017CAC, symSize: 0x94 }
  - { offsetInCU: 0x148AF, offset: 0x148AF, size: 0x8, addend: 0x0, symName: __ZNKSt3__114__split_bufferIP8SLandlotRNS_9allocatorIS2_EEE9__end_capB7v160006Ev, symObjAddr: 0x14C24, symBinAddr: 0x100017D40, symSize: 0x28 }
  - { offsetInCU: 0x148D4, offset: 0x148D4, size: 0x8, addend: 0x0, symName: __ZNKSt3__117__compressed_pairIPP8SLandlotRNS_9allocatorIS2_EEE5firstB7v160006Ev, symObjAddr: 0x14C4C, symBinAddr: 0x100017D68, symSize: 0x24 }
  - { offsetInCU: 0x148F9, offset: 0x148F9, size: 0x8, addend: 0x0, symName: __ZNSt3__111__wrap_iterIPKP8SLandlotEC2B7v160006IPS2_EERKNS0_IT_EEPNS_9enable_ifIXsr14is_convertibleIS8_S4_EE5valueEvE4typeE, symObjAddr: 0x14C70, symBinAddr: 0x100017D8C, symSize: 0x40 }
  - { offsetInCU: 0x14942, offset: 0x14942, size: 0x8, addend: 0x0, symName: __ZNSt3__16vectorIP8SLandlotNS_9allocatorIS2_EEE21__push_back_slow_pathIRKS2_EEvOT_, symObjAddr: 0x14CB0, symBinAddr: 0x100017DCC, symSize: 0xE0 }
  - { offsetInCU: 0x1499F, offset: 0x1499F, size: 0x8, addend: 0x0, symName: __ZNKSt3__16vectorIP8SLandlotNS_9allocatorIS2_EEE6cbeginB7v160006Ev, symObjAddr: 0x14EA8, symBinAddr: 0x100017FC4, symSize: 0x2C }
  - { offsetInCU: 0x149C4, offset: 0x149C4, size: 0x8, addend: 0x0, symName: __ZNSt3__16vectorI5OwnerNS_9allocatorIS1_EEE22__construct_one_at_endB7v160006IJRKS1_EEEvDpOT_, symObjAddr: 0x14ED4, symBinAddr: 0x100017FF0, symSize: 0x98 }
  - { offsetInCU: 0x14A12, offset: 0x14A12, size: 0x8, addend: 0x0, symName: __ZNSt3__114pointer_traitsIPK5OwnerE10pointer_toB7v160006ERS2_, symObjAddr: 0x14F6C, symBinAddr: 0x100018088, symSize: 0x14 }
  - { offsetInCU: 0x14A34, offset: 0x14A34, size: 0x8, addend: 0x0, symName: __ZNSt3__114__split_bufferI5OwnerRNS_9allocatorIS1_EEE9push_backB7v160006ERKS1_, symObjAddr: 0x14F80, symBinAddr: 0x10001809C, symSize: 0x268 }
  - { offsetInCU: 0x14AAC, offset: 0x14AAC, size: 0x8, addend: 0x0, symName: __ZNSt3__18_IterOpsINS_17_ClassicAlgPolicyEE8distanceB7v160006INS_11__wrap_iterIPK5OwnerEEEENS_15iterator_traitsIT_E15difference_typeESA_SA_, symObjAddr: 0x152F0, symBinAddr: 0x10001840C, symSize: 0x3C }
  - { offsetInCU: 0x14AE6, offset: 0x14AE6, size: 0x8, addend: 0x0, symName: __ZNSt3__18_IterOpsINS_17_ClassicAlgPolicyEE7advanceB7v160006INS_11__wrap_iterIPK5OwnerEElEEvRT_T0_, symObjAddr: 0x1532C, symBinAddr: 0x100018448, symSize: 0x2C }
  - { offsetInCU: 0x14B29, offset: 0x14B29, size: 0x8, addend: 0x0, symName: __ZNSt3__111__wrap_iterIPK5OwnerEppB7v160006Ev, symObjAddr: 0x153C0, symBinAddr: 0x1000184DC, symSize: 0x20 }
  - { offsetInCU: 0x14B4E, offset: 0x14B4E, size: 0x8, addend: 0x0, symName: __ZNSt3__111__wrap_iterIPK5OwnerEpLB7v160006El, symObjAddr: 0x15510, symBinAddr: 0x10001862C, symSize: 0x30 }
  - { offsetInCU: 0x14B81, offset: 0x14B81, size: 0x8, addend: 0x0, symName: __ZNKSt3__110__identityclIRK5OwnerEEOT_S6_, symObjAddr: 0x15540, symBinAddr: 0x10001865C, symSize: 0x18 }
...
